SF:/home/radivis/projects/bitboard-pwa-wallet/crypto/src/descriptors.rs
FN:22,_RNCNvNtCsdHuZvB8FrmQ_15bitboard_crypto11descriptors18derive_descriptors0B5_
FN:27,_RNCNvNtCsdHuZvB8FrmQ_15bitboard_crypto11descriptors18derive_descriptorss_0B5_
FN:15,_RNvNtCsdHuZvB8FrmQ_15bitboard_crypto11descriptors18derive_descriptors
FN:15,_RNvNtCs1c8bENWoAUm_15bitboard_crypto11descriptors18derive_descriptors
FN:22,_RNCNvNtCs1c8bENWoAUm_15bitboard_crypto11descriptors18derive_descriptors0B5_
FN:27,_RNCNvNtCs1c8bENWoAUm_15bitboard_crypto11descriptors18derive_descriptorss_0B5_
FNDA:0,_RNCNvNtCsdHuZvB8FrmQ_15bitboard_crypto11descriptors18derive_descriptors0B5_
FNDA:0,_RNCNvNtCsdHuZvB8FrmQ_15bitboard_crypto11descriptors18derive_descriptorss_0B5_
FNDA:0,_RNvNtCsdHuZvB8FrmQ_15bitboard_crypto11descriptors18derive_descriptors
FNDA:55,_RNvNtCs1c8bENWoAUm_15bitboard_crypto11descriptors18derive_descriptors
FNDA:2,_RNCNvNtCs1c8bENWoAUm_15bitboard_crypto11descriptors18derive_descriptors0B5_
FNDA:0,_RNCNvNtCs1c8bENWoAUm_15bitboard_crypto11descriptors18derive_descriptorss_0B5_
FNF:3
FNH:2
DA:15,55
DA:16,55
DA:17,55
DA:18,55
DA:19,55
DA:20,55
DA:21,55
DA:22,55
DA:24,53
DA:25,53
DA:26,53
DA:27,53
DA:29,53
DA:30,3
DA:32,50
DA:35,53
DA:36,48
DA:37,5
DA:40,53
DA:41,53
DA:42,53
DA:43,53
DA:44,55
BRF:0
BRH:0
LF:25
LH:24
end_of_record
SF:/home/radivis/projects/bitboard-pwa-wallet/crypto/src/error.rs
FN:21,_RNvXNtCsdHuZvB8FrmQ_15bitboard_crypto5errorNtCsirJcbdZ8aRU_12wasm_bindgen7JsValueINtNtCs4Vq2ZLagKfv_4core7convert4FromNtB2_11CryptoErrorE4from
FN:39,_RNvXs1_NtCsdHuZvB8FrmQ_15bitboard_crypto5errorNtB5_11CryptoErrorINtNtCs4Vq2ZLagKfv_4core7convert4FromNtNtCsi89BpytbinJ_10serde_json5error5ErrorE4from
FN:45,_RNvXs2_NtCsdHuZvB8FrmQ_15bitboard_crypto5errorNtB5_11CryptoErrorINtNtCs4Vq2ZLagKfv_4core7convert4FromNtCscPEtTg6FNSW_14esplora_client5ErrorE4from
FN:70,_RNvXs6_NtCsdHuZvB8FrmQ_15bitboard_crypto5errorNtB5_11CryptoErrorINtNtCs4Vq2ZLagKfv_4core7convert4FromNtNtCsgYnhTiW50BB_9bdk_chain11local_chain18CannotConnectErrorE4from
FN:33,_RNvXs0_NtCsdHuZvB8FrmQ_15bitboard_crypto5errorNtB5_11CryptoErrorINtNtCs4Vq2ZLagKfv_4core7convert4FromNtNtNtCs6h80aqwLHci_10bdk_wallet10descriptor5error5ErrorE4from
FN:51,_RNvXs3_NtCsdHuZvB8FrmQ_15bitboard_crypto5errorNtB5_11CryptoErrorINtNtCs4Vq2ZLagKfv_4core7convert4FromINtNtCs456UZznmu7y_5alloc5boxed3BoxNtCscPEtTg6FNSW_14esplora_client5ErrorEE4from
FN:57,_RNvXs4_NtCsdHuZvB8FrmQ_15bitboard_crypto5errorNtB5_11CryptoErrorINtNtCs4Vq2ZLagKfv_4core7convert4FromNtNtNtCs6h80aqwLHci_10bdk_wallet6wallet5error13CreateTxErrorE4from
FN:64,_RNvXs5_NtCsdHuZvB8FrmQ_15bitboard_crypto5errorNtB5_11CryptoErrorINtNtCs4Vq2ZLagKfv_4core7convert4FromNtNtNtCs6h80aqwLHci_10bdk_wallet6wallet6signer11SignerErrorE4from
FN:76,_RNvXs7_NtCsdHuZvB8FrmQ_15bitboard_crypto5errorNtB5_11CryptoErrorINtNtCs4Vq2ZLagKfv_4core7convert4FromNtNtNtCsaqzHeJDk4bf_7bitcoin7address5error10ParseErrorE4from
FN:27,_RNvXs_NtCsdHuZvB8FrmQ_15bitboard_crypto5errorNtB4_11CryptoErrorINtNtCs4Vq2ZLagKfv_4core7convert4FromNtCs7gN0SqgI7Zy_5bip395ErrorE4from
FN:33,_RNvXs0_NtCs1c8bENWoAUm_15bitboard_crypto5errorNtB5_11CryptoErrorINtNtCs4Vq2ZLagKfv_4core7convert4FromNtNtNtCs6h80aqwLHci_10bdk_wallet10descriptor5error5ErrorE4from
FN:39,_RNvXs1_NtCs1c8bENWoAUm_15bitboard_crypto5errorNtB5_11CryptoErrorINtNtCs4Vq2ZLagKfv_4core7convert4FromNtNtCsi89BpytbinJ_10serde_json5error5ErrorE4from
FN:45,_RNvXs2_NtCs1c8bENWoAUm_15bitboard_crypto5errorNtB5_11CryptoErrorINtNtCs4Vq2ZLagKfv_4core7convert4FromNtCscPEtTg6FNSW_14esplora_client5ErrorE4from
FN:51,_RNvXs3_NtCs1c8bENWoAUm_15bitboard_crypto5errorNtB5_11CryptoErrorINtNtCs4Vq2ZLagKfv_4core7convert4FromINtNtCs456UZznmu7y_5alloc5boxed3BoxNtCscPEtTg6FNSW_14esplora_client5ErrorEE4from
FN:57,_RNvXs4_NtCs1c8bENWoAUm_15bitboard_crypto5errorNtB5_11CryptoErrorINtNtCs4Vq2ZLagKfv_4core7convert4FromNtNtNtCs6h80aqwLHci_10bdk_wallet6wallet5error13CreateTxErrorE4from
FN:64,_RNvXs5_NtCs1c8bENWoAUm_15bitboard_crypto5errorNtB5_11CryptoErrorINtNtCs4Vq2ZLagKfv_4core7convert4FromNtNtNtCs6h80aqwLHci_10bdk_wallet6wallet6signer11SignerErrorE4from
FN:70,_RNvXs6_NtCs1c8bENWoAUm_15bitboard_crypto5errorNtB5_11CryptoErrorINtNtCs4Vq2ZLagKfv_4core7convert4FromNtNtCsgYnhTiW50BB_9bdk_chain11local_chain18CannotConnectErrorE4from
FN:76,_RNvXs7_NtCs1c8bENWoAUm_15bitboard_crypto5errorNtB5_11CryptoErrorINtNtCs4Vq2ZLagKfv_4core7convert4FromNtNtNtCsaqzHeJDk4bf_7bitcoin7address5error10ParseErrorE4from
FN:27,_RNvXs_NtCs1c8bENWoAUm_15bitboard_crypto5errorNtB4_11CryptoErrorINtNtCs4Vq2ZLagKfv_4core7convert4FromNtCs7gN0SqgI7Zy_5bip395ErrorE4from
FN:21,_RNvXNtCs1c8bENWoAUm_15bitboard_crypto5errorNtCsirJcbdZ8aRU_12wasm_bindgen7JsValueINtNtCs4Vq2ZLagKfv_4core7convert4FromNtB2_11CryptoErrorE4from
FNDA:0,_RNvXNtCsdHuZvB8FrmQ_15bitboard_crypto5errorNtCsirJcbdZ8aRU_12wasm_bindgen7JsValueINtNtCs4Vq2ZLagKfv_4core7convert4FromNtB2_11CryptoErrorE4from
FNDA:1,_RNvXs1_NtCsdHuZvB8FrmQ_15bitboard_crypto5errorNtB5_11CryptoErrorINtNtCs4Vq2ZLagKfv_4core7convert4FromNtNtCsi89BpytbinJ_10serde_json5error5ErrorE4from
FNDA:0,_RNvXs2_NtCsdHuZvB8FrmQ_15bitboard_crypto5errorNtB5_11CryptoErrorINtNtCs4Vq2ZLagKfv_4core7convert4FromNtCscPEtTg6FNSW_14esplora_client5ErrorE4from
FNDA:0,_RNvXs6_NtCsdHuZvB8FrmQ_15bitboard_crypto5errorNtB5_11CryptoErrorINtNtCs4Vq2ZLagKfv_4core7convert4FromNtNtCsgYnhTiW50BB_9bdk_chain11local_chain18CannotConnectErrorE4from
FNDA:0,_RNvXs0_NtCsdHuZvB8FrmQ_15bitboard_crypto5errorNtB5_11CryptoErrorINtNtCs4Vq2ZLagKfv_4core7convert4FromNtNtNtCs6h80aqwLHci_10bdk_wallet10descriptor5error5ErrorE4from
FNDA:0,_RNvXs3_NtCsdHuZvB8FrmQ_15bitboard_crypto5errorNtB5_11CryptoErrorINtNtCs4Vq2ZLagKfv_4core7convert4FromINtNtCs456UZznmu7y_5alloc5boxed3BoxNtCscPEtTg6FNSW_14esplora_client5ErrorEE4from
FNDA:0,_RNvXs4_NtCsdHuZvB8FrmQ_15bitboard_crypto5errorNtB5_11CryptoErrorINtNtCs4Vq2ZLagKfv_4core7convert4FromNtNtNtCs6h80aqwLHci_10bdk_wallet6wallet5error13CreateTxErrorE4from
FNDA:0,_RNvXs5_NtCsdHuZvB8FrmQ_15bitboard_crypto5errorNtB5_11CryptoErrorINtNtCs4Vq2ZLagKfv_4core7convert4FromNtNtNtCs6h80aqwLHci_10bdk_wallet6wallet6signer11SignerErrorE4from
FNDA:0,_RNvXs7_NtCsdHuZvB8FrmQ_15bitboard_crypto5errorNtB5_11CryptoErrorINtNtCs4Vq2ZLagKfv_4core7convert4FromNtNtNtCsaqzHeJDk4bf_7bitcoin7address5error10ParseErrorE4from
FNDA:0,_RNvXs_NtCsdHuZvB8FrmQ_15bitboard_crypto5errorNtB4_11CryptoErrorINtNtCs4Vq2ZLagKfv_4core7convert4FromNtCs7gN0SqgI7Zy_5bip395ErrorE4from
FNDA:0,_RNvXs0_NtCs1c8bENWoAUm_15bitboard_crypto5errorNtB5_11CryptoErrorINtNtCs4Vq2ZLagKfv_4core7convert4FromNtNtNtCs6h80aqwLHci_10bdk_wallet10descriptor5error5ErrorE4from
FNDA:1,_RNvXs1_NtCs1c8bENWoAUm_15bitboard_crypto5errorNtB5_11CryptoErrorINtNtCs4Vq2ZLagKfv_4core7convert4FromNtNtCsi89BpytbinJ_10serde_json5error5ErrorE4from
FNDA:1,_RNvXs2_NtCs1c8bENWoAUm_15bitboard_crypto5errorNtB5_11CryptoErrorINtNtCs4Vq2ZLagKfv_4core7convert4FromNtCscPEtTg6FNSW_14esplora_client5ErrorE4from
FNDA:0,_RNvXs3_NtCs1c8bENWoAUm_15bitboard_crypto5errorNtB5_11CryptoErrorINtNtCs4Vq2ZLagKfv_4core7convert4FromINtNtCs456UZznmu7y_5alloc5boxed3BoxNtCscPEtTg6FNSW_14esplora_client5ErrorEE4from
FNDA:1,_RNvXs4_NtCs1c8bENWoAUm_15bitboard_crypto5errorNtB5_11CryptoErrorINtNtCs4Vq2ZLagKfv_4core7convert4FromNtNtNtCs6h80aqwLHci_10bdk_wallet6wallet5error13CreateTxErrorE4from
FNDA:0,_RNvXs5_NtCs1c8bENWoAUm_15bitboard_crypto5errorNtB5_11CryptoErrorINtNtCs4Vq2ZLagKfv_4core7convert4FromNtNtNtCs6h80aqwLHci_10bdk_wallet6wallet6signer11SignerErrorE4from
FNDA:0,_RNvXs6_NtCs1c8bENWoAUm_15bitboard_crypto5errorNtB5_11CryptoErrorINtNtCs4Vq2ZLagKfv_4core7convert4FromNtNtCsgYnhTiW50BB_9bdk_chain11local_chain18CannotConnectErrorE4from
FNDA:1,_RNvXs7_NtCs1c8bENWoAUm_15bitboard_crypto5errorNtB5_11CryptoErrorINtNtCs4Vq2ZLagKfv_4core7convert4FromNtNtNtCsaqzHeJDk4bf_7bitcoin7address5error10ParseErrorE4from
FNDA:0,_RNvXs_NtCs1c8bENWoAUm_15bitboard_crypto5errorNtB4_11CryptoErrorINtNtCs4Vq2ZLagKfv_4core7convert4FromNtCs7gN0SqgI7Zy_5bip395ErrorE4from
FNDA:0,_RNvXNtCs1c8bENWoAUm_15bitboard_crypto5errorNtCsirJcbdZ8aRU_12wasm_bindgen7JsValueINtNtCs4Vq2ZLagKfv_4core7convert4FromNtB2_11CryptoErrorE4from
FNF:10
FNH:4
DA:21,0
DA:22,0
DA:23,0
DA:27,0
DA:28,0
DA:29,0
DA:33,0
DA:34,0
DA:35,0
DA:39,2
DA:40,2
DA:41,2
DA:45,1
DA:46,1
DA:47,1
DA:51,0
DA:52,0
DA:53,0
DA:57,1
DA:58,1
DA:59,1
DA:64,0
DA:65,0
DA:66,0
DA:70,0
DA:71,0
DA:72,0
DA:76,1
DA:77,1
DA:78,1
BRF:0
BRH:0
LF:30
LH:12
end_of_record
SF:/home/radivis/projects/bitboard-pwa-wallet/crypto/src/esplora.rs
FN:15,_RNvMNtCsdHuZvB8FrmQ_15bitboard_crypto7esploraNtB2_13EsploraClient3new
FN:29,_RNvMNtCsdHuZvB8FrmQ_15bitboard_crypto7esploraNtB2_13EsploraClient5inner
FN:57,_RNvXs_NtCsdHuZvB8FrmQ_15bitboard_crypto7esploraNtB4_13EsploraClientNtNtB6_10blockchain16BlockchainClient9broadcast
FN:51,_RNvXs_NtCsdHuZvB8FrmQ_15bitboard_crypto7esploraNtB4_13EsploraClientNtNtB6_10blockchain16BlockchainClient4sync
FN:42,_RNvXs_NtCsdHuZvB8FrmQ_15bitboard_crypto7esploraNtB4_13EsploraClientNtNtB6_10blockchain16BlockchainClient9full_scan
FN:21,_RNCNvMNtCsdHuZvB8FrmQ_15bitboard_crypto7esploraNtB4_13EsploraClient3new0B6_
FN:15,_RNvMNtCs1c8bENWoAUm_15bitboard_crypto7esploraNtB2_13EsploraClient3new
FN:29,_RNvMNtCs1c8bENWoAUm_15bitboard_crypto7esploraNtB2_13EsploraClient5inner
FN:51,_RNvXs_NtCs1c8bENWoAUm_15bitboard_crypto7esploraNtB4_13EsploraClientNtNtB6_10blockchain16BlockchainClient4sync
FN:57,_RNvXs_NtCs1c8bENWoAUm_15bitboard_crypto7esploraNtB4_13EsploraClientNtNtB6_10blockchain16BlockchainClient9broadcast
FN:42,_RNvXs_NtCs1c8bENWoAUm_15bitboard_crypto7esploraNtB4_13EsploraClientNtNtB6_10blockchain16BlockchainClient9full_scan
FN:21,_RNCNvMNtCs1c8bENWoAUm_15bitboard_crypto7esploraNtB4_13EsploraClient3new0B6_
FNDA:0,_RNvMNtCsdHuZvB8FrmQ_15bitboard_crypto7esploraNtB2_13EsploraClient3new
FNDA:0,_RNvMNtCsdHuZvB8FrmQ_15bitboard_crypto7esploraNtB2_13EsploraClient5inner
FNDA:0,_RNvXs_NtCsdHuZvB8FrmQ_15bitboard_crypto7esploraNtB4_13EsploraClientNtNtB6_10blockchain16BlockchainClient9broadcast
FNDA:0,_RNvXs_NtCsdHuZvB8FrmQ_15bitboard_crypto7esploraNtB4_13EsploraClientNtNtB6_10blockchain16BlockchainClient4sync
FNDA:0,_RNvXs_NtCsdHuZvB8FrmQ_15bitboard_crypto7esploraNtB4_13EsploraClientNtNtB6_10blockchain16BlockchainClient9full_scan
FNDA:0,_RNCNvMNtCsdHuZvB8FrmQ_15bitboard_crypto7esploraNtB4_13EsploraClient3new0B6_
FNDA:4,_RNvMNtCs1c8bENWoAUm_15bitboard_crypto7esploraNtB2_13EsploraClient3new
FNDA:0,_RNvMNtCs1c8bENWoAUm_15bitboard_crypto7esploraNtB2_13EsploraClient5inner
FNDA:0,_RNvXs_NtCs1c8bENWoAUm_15bitboard_crypto7esploraNtB4_13EsploraClientNtNtB6_10blockchain16BlockchainClient4sync
FNDA:2,_RNvXs_NtCs1c8bENWoAUm_15bitboard_crypto7esploraNtB4_13EsploraClientNtNtB6_10blockchain16BlockchainClient9broadcast
FNDA:0,_RNvXs_NtCs1c8bENWoAUm_15bitboard_crypto7esploraNtB4_13EsploraClientNtNtB6_10blockchain16BlockchainClient9full_scan
FNDA:0,_RNCNvMNtCs1c8bENWoAUm_15bitboard_crypto7esploraNtB4_13EsploraClient3new0B6_
FNF:6
FNH:2
DA:15,4
DA:16,4
DA:17,1
DA:18,3
DA:19,3
DA:20,3
DA:21,3
DA:22,3
DA:23,4
DA:29,0
DA:30,0
DA:31,0
DA:42,0
DA:49,0
DA:51,0
DA:55,0
DA:57,2
DA:60,2
BRF:0
BRH:0
LF:19
LH:11
end_of_record
SF:/home/radivis/projects/bitboard-pwa-wallet/crypto/src/lab.rs
FN:292,_RNCNCNvNtCsdHuZvB8FrmQ_15bitboard_crypto3lab26lab_sign_transaction_multis1_00B7_
FN:86,_RNCNvNtCsdHuZvB8FrmQ_15bitboard_crypto3lab14lab_mine_block0B5_
FN:100,_RNCNvNtCsdHuZvB8FrmQ_15bitboard_crypto3lab14lab_mine_blocks0_0B5_
FN:103,_RNCNvNtCsdHuZvB8FrmQ_15bitboard_crypto3lab14lab_mine_blocks1_0B5_
FN:92,_RNCNvNtCsdHuZvB8FrmQ_15bitboard_crypto3lab14lab_mine_blocks_0B5_
FN:506,_RNCNvNtCsdHuZvB8FrmQ_15bitboard_crypto3lab17lab_block_effects0B5_
FN:627,_RNCNvNtCsdHuZvB8FrmQ_15bitboard_crypto3lab19compute_merkle_root0B5_
FN:450,_RNCNvNtCsdHuZvB8FrmQ_15bitboard_crypto3lab20lab_generate_keypair0B5_
FN:456,_RNCNvNtCsdHuZvB8FrmQ_15bitboard_crypto3lab20lab_generate_keypairs0_0B5_
FN:464,_RNCNvNtCsdHuZvB8FrmQ_15bitboard_crypto3lab20lab_generate_keypairs1_0B5_
FN:451,_RNCNvNtCsdHuZvB8FrmQ_15bitboard_crypto3lab20lab_generate_keypairs_0B5_
FN:216,_RNCNvNtCsdHuZvB8FrmQ_15bitboard_crypto3lab20lab_sign_transaction0B5_
FN:221,_RNCNvNtCsdHuZvB8FrmQ_15bitboard_crypto3lab20lab_sign_transactions0_0B5_
FN:238,_RNCNvNtCsdHuZvB8FrmQ_15bitboard_crypto3lab20lab_sign_transactions1_0B5_
FN:248,_RNCNvNtCsdHuZvB8FrmQ_15bitboard_crypto3lab20lab_sign_transactions2_0B5_
FN:219,_RNCNvNtCsdHuZvB8FrmQ_15bitboard_crypto3lab20lab_sign_transactions_0B5_
FN:132,_RNCNvNtCsdHuZvB8FrmQ_15bitboard_crypto3lab21lab_build_transaction0B5_
FN:156,_RNCNvNtCsdHuZvB8FrmQ_15bitboard_crypto3lab21lab_build_transactions2_0B5_
FN:158,_RNCNvNtCsdHuZvB8FrmQ_15bitboard_crypto3lab21lab_build_transactions3_0B5_
FN:180,_RNCNvNtCsdHuZvB8FrmQ_15bitboard_crypto3lab21lab_build_transactions4_0B5_
FN:182,_RNCNvNtCsdHuZvB8FrmQ_15bitboard_crypto3lab21lab_build_transactions5_0B5_
FN:134,_RNCNvNtCsdHuZvB8FrmQ_15bitboard_crypto3lab21lab_build_transactions_0B5_
FN:275,_RNCNvNtCsdHuZvB8FrmQ_15bitboard_crypto3lab26lab_sign_transaction_multi0B5_
FN:281,_RNCNvNtCsdHuZvB8FrmQ_15bitboard_crypto3lab26lab_sign_transaction_multis0_0B5_
FN:290,_RNCNvNtCsdHuZvB8FrmQ_15bitboard_crypto3lab26lab_sign_transaction_multis1_0B5_
FN:310,_RNCNvNtCsdHuZvB8FrmQ_15bitboard_crypto3lab26lab_sign_transaction_multis2_0B5_
FN:311,_RNCNvNtCsdHuZvB8FrmQ_15bitboard_crypto3lab26lab_sign_transaction_multis3_0B5_
FN:319,_RNCNvNtCsdHuZvB8FrmQ_15bitboard_crypto3lab26lab_sign_transaction_multis4_0B5_
FN:324,_RNCNvNtCsdHuZvB8FrmQ_15bitboard_crypto3lab26lab_sign_transaction_multis5_0B5_
FN:330,_RNCNvNtCsdHuZvB8FrmQ_15bitboard_crypto3lab26lab_sign_transaction_multis6_0B5_
FN:341,_RNCNvNtCsdHuZvB8FrmQ_15bitboard_crypto3lab26lab_sign_transaction_multis7_0B5_
FN:355,_RNCNvNtCsdHuZvB8FrmQ_15bitboard_crypto3lab26lab_sign_transaction_multis8_0B5_
FN:278,_RNCNvNtCsdHuZvB8FrmQ_15bitboard_crypto3lab26lab_sign_transaction_multis_0B5_
FN:587,_RNCNvNtCsdHuZvB8FrmQ_15bitboard_crypto3lab32lab_address_to_script_pubkey_hex0B5_
FN:589,_RNCNvNtCsdHuZvB8FrmQ_15bitboard_crypto3lab32lab_address_to_script_pubkey_hexs_0B5_
FN:383,_RNCNvNtCsdHuZvB8FrmQ_15bitboard_crypto3lab33lab_build_transaction_with_change0B5_
FN:433,_RNCNvNtCsdHuZvB8FrmQ_15bitboard_crypto3lab33lab_build_transaction_with_changes0_0B5_
FN:633,_RNvNtCsdHuZvB8FrmQ_15bitboard_crypto3lab13unix_time_lab
FN:494,_RNvNtCsdHuZvB8FrmQ_15bitboard_crypto3lab14lab_block_hash
FN:78,_RNvNtCsdHuZvB8FrmQ_15bitboard_crypto3lab14lab_mine_block
FN:505,_RNvNtCsdHuZvB8FrmQ_15bitboard_crypto3lab17lab_block_effects
FN:599,_RNvNtCsdHuZvB8FrmQ_15bitboard_crypto3lab18create_coinbase_tx
FN:626,_RNvNtCsdHuZvB8FrmQ_15bitboard_crypto3lab19compute_merkle_root
FN:446,_RNvNtCsdHuZvB8FrmQ_15bitboard_crypto3lab20lab_generate_keypair
FN:214,_RNvNtCsdHuZvB8FrmQ_15bitboard_crypto3lab20lab_sign_transaction
FN:469,_RNvNtCsdHuZvB8FrmQ_15bitboard_crypto3lab20lab_validate_address
FN:126,_RNvNtCsdHuZvB8FrmQ_15bitboard_crypto3lab21lab_build_transaction
FN:65,_RNvNtCsdHuZvB8FrmQ_15bitboard_crypto3lab22regtest_create_genesis
FN:269,_RNvNtCsdHuZvB8FrmQ_15bitboard_crypto3lab26lab_sign_transaction_multi
FN:585,_RNvNtCsdHuZvB8FrmQ_15bitboard_crypto3lab32lab_address_to_script_pubkey_hex
FN:375,_RNvNtCsdHuZvB8FrmQ_15bitboard_crypto3lab33lab_build_transaction_with_change
FN:484,_RNvNtCsdHuZvB8FrmQ_15bitboard_crypto3lab8lab_txid
FN:292,_RNCNCNvNtCs1c8bENWoAUm_15bitboard_crypto3lab26lab_sign_transaction_multis1_00B7_
FN:86,_RNCNvNtCs1c8bENWoAUm_15bitboard_crypto3lab14lab_mine_block0B5_
FN:100,_RNCNvNtCs1c8bENWoAUm_15bitboard_crypto3lab14lab_mine_blocks0_0B5_
FN:103,_RNCNvNtCs1c8bENWoAUm_15bitboard_crypto3lab14lab_mine_blocks1_0B5_
FN:92,_RNCNvNtCs1c8bENWoAUm_15bitboard_crypto3lab14lab_mine_blocks_0B5_
FN:506,_RNCNvNtCs1c8bENWoAUm_15bitboard_crypto3lab17lab_block_effects0B5_
FN:627,_RNCNvNtCs1c8bENWoAUm_15bitboard_crypto3lab19compute_merkle_root0B5_
FN:450,_RNCNvNtCs1c8bENWoAUm_15bitboard_crypto3lab20lab_generate_keypair0B5_
FN:456,_RNCNvNtCs1c8bENWoAUm_15bitboard_crypto3lab20lab_generate_keypairs0_0B5_
FN:464,_RNCNvNtCs1c8bENWoAUm_15bitboard_crypto3lab20lab_generate_keypairs1_0B5_
FN:451,_RNCNvNtCs1c8bENWoAUm_15bitboard_crypto3lab20lab_generate_keypairs_0B5_
FN:216,_RNCNvNtCs1c8bENWoAUm_15bitboard_crypto3lab20lab_sign_transaction0B5_
FN:221,_RNCNvNtCs1c8bENWoAUm_15bitboard_crypto3lab20lab_sign_transactions0_0B5_
FN:238,_RNCNvNtCs1c8bENWoAUm_15bitboard_crypto3lab20lab_sign_transactions1_0B5_
FN:248,_RNCNvNtCs1c8bENWoAUm_15bitboard_crypto3lab20lab_sign_transactions2_0B5_
FN:219,_RNCNvNtCs1c8bENWoAUm_15bitboard_crypto3lab20lab_sign_transactions_0B5_
FN:132,_RNCNvNtCs1c8bENWoAUm_15bitboard_crypto3lab21lab_build_transaction0B5_
FN:156,_RNCNvNtCs1c8bENWoAUm_15bitboard_crypto3lab21lab_build_transactions2_0B5_
FN:158,_RNCNvNtCs1c8bENWoAUm_15bitboard_crypto3lab21lab_build_transactions3_0B5_
FN:180,_RNCNvNtCs1c8bENWoAUm_15bitboard_crypto3lab21lab_build_transactions4_0B5_
FN:182,_RNCNvNtCs1c8bENWoAUm_15bitboard_crypto3lab21lab_build_transactions5_0B5_
FN:134,_RNCNvNtCs1c8bENWoAUm_15bitboard_crypto3lab21lab_build_transactions_0B5_
FN:275,_RNCNvNtCs1c8bENWoAUm_15bitboard_crypto3lab26lab_sign_transaction_multi0B5_
FN:281,_RNCNvNtCs1c8bENWoAUm_15bitboard_crypto3lab26lab_sign_transaction_multis0_0B5_
FN:290,_RNCNvNtCs1c8bENWoAUm_15bitboard_crypto3lab26lab_sign_transaction_multis1_0B5_
FN:310,_RNCNvNtCs1c8bENWoAUm_15bitboard_crypto3lab26lab_sign_transaction_multis2_0B5_
FN:311,_RNCNvNtCs1c8bENWoAUm_15bitboard_crypto3lab26lab_sign_transaction_multis3_0B5_
FN:319,_RNCNvNtCs1c8bENWoAUm_15bitboard_crypto3lab26lab_sign_transaction_multis4_0B5_
FN:324,_RNCNvNtCs1c8bENWoAUm_15bitboard_crypto3lab26lab_sign_transaction_multis5_0B5_
FN:330,_RNCNvNtCs1c8bENWoAUm_15bitboard_crypto3lab26lab_sign_transaction_multis6_0B5_
FN:341,_RNCNvNtCs1c8bENWoAUm_15bitboard_crypto3lab26lab_sign_transaction_multis7_0B5_
FN:355,_RNCNvNtCs1c8bENWoAUm_15bitboard_crypto3lab26lab_sign_transaction_multis8_0B5_
FN:278,_RNCNvNtCs1c8bENWoAUm_15bitboard_crypto3lab26lab_sign_transaction_multis_0B5_
FN:587,_RNCNvNtCs1c8bENWoAUm_15bitboard_crypto3lab32lab_address_to_script_pubkey_hex0B5_
FN:589,_RNCNvNtCs1c8bENWoAUm_15bitboard_crypto3lab32lab_address_to_script_pubkey_hexs_0B5_
FN:383,_RNCNvNtCs1c8bENWoAUm_15bitboard_crypto3lab33lab_build_transaction_with_change0B5_
FN:433,_RNCNvNtCs1c8bENWoAUm_15bitboard_crypto3lab33lab_build_transaction_with_changes0_0B5_
FN:633,_RNvNtCs1c8bENWoAUm_15bitboard_crypto3lab13unix_time_lab
FN:494,_RNvNtCs1c8bENWoAUm_15bitboard_crypto3lab14lab_block_hash
FN:78,_RNvNtCs1c8bENWoAUm_15bitboard_crypto3lab14lab_mine_block
FN:505,_RNvNtCs1c8bENWoAUm_15bitboard_crypto3lab17lab_block_effects
FN:599,_RNvNtCs1c8bENWoAUm_15bitboard_crypto3lab18create_coinbase_tx
FN:626,_RNvNtCs1c8bENWoAUm_15bitboard_crypto3lab19compute_merkle_root
FN:446,_RNvNtCs1c8bENWoAUm_15bitboard_crypto3lab20lab_generate_keypair
FN:214,_RNvNtCs1c8bENWoAUm_15bitboard_crypto3lab20lab_sign_transaction
FN:469,_RNvNtCs1c8bENWoAUm_15bitboard_crypto3lab20lab_validate_address
FN:126,_RNvNtCs1c8bENWoAUm_15bitboard_crypto3lab21lab_build_transaction
FN:65,_RNvNtCs1c8bENWoAUm_15bitboard_crypto3lab22regtest_create_genesis
FN:269,_RNvNtCs1c8bENWoAUm_15bitboard_crypto3lab26lab_sign_transaction_multi
FN:585,_RNvNtCs1c8bENWoAUm_15bitboard_crypto3lab32lab_address_to_script_pubkey_hex
FN:375,_RNvNtCs1c8bENWoAUm_15bitboard_crypto3lab33lab_build_transaction_with_change
FN:484,_RNvNtCs1c8bENWoAUm_15bitboard_crypto3lab8lab_txid
FNDA:0,_RNCNCNvNtCsdHuZvB8FrmQ_15bitboard_crypto3lab26lab_sign_transaction_multis1_00B7_
FNDA:0,_RNCNvNtCsdHuZvB8FrmQ_15bitboard_crypto3lab14lab_mine_block0B5_
FNDA:0,_RNCNvNtCsdHuZvB8FrmQ_15bitboard_crypto3lab14lab_mine_blocks0_0B5_
FNDA:0,_RNCNvNtCsdHuZvB8FrmQ_15bitboard_crypto3lab14lab_mine_blocks1_0B5_
FNDA:0,_RNCNvNtCsdHuZvB8FrmQ_15bitboard_crypto3lab14lab_mine_blocks_0B5_
FNDA:0,_RNCNvNtCsdHuZvB8FrmQ_15bitboard_crypto3lab17lab_block_effects0B5_
FNDA:0,_RNCNvNtCsdHuZvB8FrmQ_15bitboard_crypto3lab19compute_merkle_root0B5_
FNDA:0,_RNCNvNtCsdHuZvB8FrmQ_15bitboard_crypto3lab20lab_generate_keypair0B5_
FNDA:0,_RNCNvNtCsdHuZvB8FrmQ_15bitboard_crypto3lab20lab_generate_keypairs0_0B5_
FNDA:0,_RNCNvNtCsdHuZvB8FrmQ_15bitboard_crypto3lab20lab_generate_keypairs1_0B5_
FNDA:0,_RNCNvNtCsdHuZvB8FrmQ_15bitboard_crypto3lab20lab_generate_keypairs_0B5_
FNDA:0,_RNCNvNtCsdHuZvB8FrmQ_15bitboard_crypto3lab20lab_sign_transaction0B5_
FNDA:0,_RNCNvNtCsdHuZvB8FrmQ_15bitboard_crypto3lab20lab_sign_transactions0_0B5_
FNDA:0,_RNCNvNtCsdHuZvB8FrmQ_15bitboard_crypto3lab20lab_sign_transactions1_0B5_
FNDA:0,_RNCNvNtCsdHuZvB8FrmQ_15bitboard_crypto3lab20lab_sign_transactions2_0B5_
FNDA:0,_RNCNvNtCsdHuZvB8FrmQ_15bitboard_crypto3lab20lab_sign_transactions_0B5_
FNDA:0,_RNCNvNtCsdHuZvB8FrmQ_15bitboard_crypto3lab21lab_build_transaction0B5_
FNDA:0,_RNCNvNtCsdHuZvB8FrmQ_15bitboard_crypto3lab21lab_build_transactions2_0B5_
FNDA:0,_RNCNvNtCsdHuZvB8FrmQ_15bitboard_crypto3lab21lab_build_transactions3_0B5_
FNDA:0,_RNCNvNtCsdHuZvB8FrmQ_15bitboard_crypto3lab21lab_build_transactions4_0B5_
FNDA:0,_RNCNvNtCsdHuZvB8FrmQ_15bitboard_crypto3lab21lab_build_transactions5_0B5_
FNDA:0,_RNCNvNtCsdHuZvB8FrmQ_15bitboard_crypto3lab21lab_build_transactions_0B5_
FNDA:0,_RNCNvNtCsdHuZvB8FrmQ_15bitboard_crypto3lab26lab_sign_transaction_multi0B5_
FNDA:0,_RNCNvNtCsdHuZvB8FrmQ_15bitboard_crypto3lab26lab_sign_transaction_multis0_0B5_
FNDA:0,_RNCNvNtCsdHuZvB8FrmQ_15bitboard_crypto3lab26lab_sign_transaction_multis1_0B5_
FNDA:0,_RNCNvNtCsdHuZvB8FrmQ_15bitboard_crypto3lab26lab_sign_transaction_multis2_0B5_
FNDA:0,_RNCNvNtCsdHuZvB8FrmQ_15bitboard_crypto3lab26lab_sign_transaction_multis3_0B5_
FNDA:0,_RNCNvNtCsdHuZvB8FrmQ_15bitboard_crypto3lab26lab_sign_transaction_multis4_0B5_
FNDA:0,_RNCNvNtCsdHuZvB8FrmQ_15bitboard_crypto3lab26lab_sign_transaction_multis5_0B5_
FNDA:0,_RNCNvNtCsdHuZvB8FrmQ_15bitboard_crypto3lab26lab_sign_transaction_multis6_0B5_
FNDA:0,_RNCNvNtCsdHuZvB8FrmQ_15bitboard_crypto3lab26lab_sign_transaction_multis7_0B5_
FNDA:0,_RNCNvNtCsdHuZvB8FrmQ_15bitboard_crypto3lab26lab_sign_transaction_multis8_0B5_
FNDA:0,_RNCNvNtCsdHuZvB8FrmQ_15bitboard_crypto3lab26lab_sign_transaction_multis_0B5_
FNDA:0,_RNCNvNtCsdHuZvB8FrmQ_15bitboard_crypto3lab32lab_address_to_script_pubkey_hex0B5_
FNDA:0,_RNCNvNtCsdHuZvB8FrmQ_15bitboard_crypto3lab32lab_address_to_script_pubkey_hexs_0B5_
FNDA:0,_RNCNvNtCsdHuZvB8FrmQ_15bitboard_crypto3lab33lab_build_transaction_with_change0B5_
FNDA:0,_RNCNvNtCsdHuZvB8FrmQ_15bitboard_crypto3lab33lab_build_transaction_with_changes0_0B5_
FNDA:0,_RNvNtCsdHuZvB8FrmQ_15bitboard_crypto3lab13unix_time_lab
FNDA:0,_RNvNtCsdHuZvB8FrmQ_15bitboard_crypto3lab14lab_block_hash
FNDA:0,_RNvNtCsdHuZvB8FrmQ_15bitboard_crypto3lab14lab_mine_block
FNDA:0,_RNvNtCsdHuZvB8FrmQ_15bitboard_crypto3lab17lab_block_effects
FNDA:0,_RNvNtCsdHuZvB8FrmQ_15bitboard_crypto3lab18create_coinbase_tx
FNDA:0,_RNvNtCsdHuZvB8FrmQ_15bitboard_crypto3lab19compute_merkle_root
FNDA:0,_RNvNtCsdHuZvB8FrmQ_15bitboard_crypto3lab20lab_generate_keypair
FNDA:0,_RNvNtCsdHuZvB8FrmQ_15bitboard_crypto3lab20lab_sign_transaction
FNDA:0,_RNvNtCsdHuZvB8FrmQ_15bitboard_crypto3lab20lab_validate_address
FNDA:0,_RNvNtCsdHuZvB8FrmQ_15bitboard_crypto3lab21lab_build_transaction
FNDA:0,_RNvNtCsdHuZvB8FrmQ_15bitboard_crypto3lab22regtest_create_genesis
FNDA:0,_RNvNtCsdHuZvB8FrmQ_15bitboard_crypto3lab26lab_sign_transaction_multi
FNDA:0,_RNvNtCsdHuZvB8FrmQ_15bitboard_crypto3lab32lab_address_to_script_pubkey_hex
FNDA:0,_RNvNtCsdHuZvB8FrmQ_15bitboard_crypto3lab33lab_build_transaction_with_change
FNDA:0,_RNvNtCsdHuZvB8FrmQ_15bitboard_crypto3lab8lab_txid
FNDA:0,_RNCNCNvNtCs1c8bENWoAUm_15bitboard_crypto3lab26lab_sign_transaction_multis1_00B7_
FNDA:0,_RNCNvNtCs1c8bENWoAUm_15bitboard_crypto3lab14lab_mine_block0B5_
FNDA:0,_RNCNvNtCs1c8bENWoAUm_15bitboard_crypto3lab14lab_mine_blocks0_0B5_
FNDA:0,_RNCNvNtCs1c8bENWoAUm_15bitboard_crypto3lab14lab_mine_blocks1_0B5_
FNDA:0,_RNCNvNtCs1c8bENWoAUm_15bitboard_crypto3lab14lab_mine_blocks_0B5_
FNDA:0,_RNCNvNtCs1c8bENWoAUm_15bitboard_crypto3lab17lab_block_effects0B5_
FNDA:0,_RNCNvNtCs1c8bENWoAUm_15bitboard_crypto3lab19compute_merkle_root0B5_
FNDA:0,_RNCNvNtCs1c8bENWoAUm_15bitboard_crypto3lab20lab_generate_keypair0B5_
FNDA:0,_RNCNvNtCs1c8bENWoAUm_15bitboard_crypto3lab20lab_generate_keypairs0_0B5_
FNDA:0,_RNCNvNtCs1c8bENWoAUm_15bitboard_crypto3lab20lab_generate_keypairs1_0B5_
FNDA:0,_RNCNvNtCs1c8bENWoAUm_15bitboard_crypto3lab20lab_generate_keypairs_0B5_
FNDA:0,_RNCNvNtCs1c8bENWoAUm_15bitboard_crypto3lab20lab_sign_transaction0B5_
FNDA:0,_RNCNvNtCs1c8bENWoAUm_15bitboard_crypto3lab20lab_sign_transactions0_0B5_
FNDA:0,_RNCNvNtCs1c8bENWoAUm_15bitboard_crypto3lab20lab_sign_transactions1_0B5_
FNDA:0,_RNCNvNtCs1c8bENWoAUm_15bitboard_crypto3lab20lab_sign_transactions2_0B5_
FNDA:0,_RNCNvNtCs1c8bENWoAUm_15bitboard_crypto3lab20lab_sign_transactions_0B5_
FNDA:0,_RNCNvNtCs1c8bENWoAUm_15bitboard_crypto3lab21lab_build_transaction0B5_
FNDA:0,_RNCNvNtCs1c8bENWoAUm_15bitboard_crypto3lab21lab_build_transactions2_0B5_
FNDA:0,_RNCNvNtCs1c8bENWoAUm_15bitboard_crypto3lab21lab_build_transactions3_0B5_
FNDA:0,_RNCNvNtCs1c8bENWoAUm_15bitboard_crypto3lab21lab_build_transactions4_0B5_
FNDA:0,_RNCNvNtCs1c8bENWoAUm_15bitboard_crypto3lab21lab_build_transactions5_0B5_
FNDA:0,_RNCNvNtCs1c8bENWoAUm_15bitboard_crypto3lab21lab_build_transactions_0B5_
FNDA:0,_RNCNvNtCs1c8bENWoAUm_15bitboard_crypto3lab26lab_sign_transaction_multi0B5_
FNDA:0,_RNCNvNtCs1c8bENWoAUm_15bitboard_crypto3lab26lab_sign_transaction_multis0_0B5_
FNDA:0,_RNCNvNtCs1c8bENWoAUm_15bitboard_crypto3lab26lab_sign_transaction_multis1_0B5_
FNDA:0,_RNCNvNtCs1c8bENWoAUm_15bitboard_crypto3lab26lab_sign_transaction_multis2_0B5_
FNDA:0,_RNCNvNtCs1c8bENWoAUm_15bitboard_crypto3lab26lab_sign_transaction_multis3_0B5_
FNDA:0,_RNCNvNtCs1c8bENWoAUm_15bitboard_crypto3lab26lab_sign_transaction_multis4_0B5_
FNDA:0,_RNCNvNtCs1c8bENWoAUm_15bitboard_crypto3lab26lab_sign_transaction_multis5_0B5_
FNDA:0,_RNCNvNtCs1c8bENWoAUm_15bitboard_crypto3lab26lab_sign_transaction_multis6_0B5_
FNDA:0,_RNCNvNtCs1c8bENWoAUm_15bitboard_crypto3lab26lab_sign_transaction_multis7_0B5_
FNDA:0,_RNCNvNtCs1c8bENWoAUm_15bitboard_crypto3lab26lab_sign_transaction_multis8_0B5_
FNDA:0,_RNCNvNtCs1c8bENWoAUm_15bitboard_crypto3lab26lab_sign_transaction_multis_0B5_
FNDA:0,_RNCNvNtCs1c8bENWoAUm_15bitboard_crypto3lab32lab_address_to_script_pubkey_hex0B5_
FNDA:0,_RNCNvNtCs1c8bENWoAUm_15bitboard_crypto3lab32lab_address_to_script_pubkey_hexs_0B5_
FNDA:0,_RNCNvNtCs1c8bENWoAUm_15bitboard_crypto3lab33lab_build_transaction_with_change0B5_
FNDA:0,_RNCNvNtCs1c8bENWoAUm_15bitboard_crypto3lab33lab_build_transaction_with_changes0_0B5_
FNDA:0,_RNvNtCs1c8bENWoAUm_15bitboard_crypto3lab13unix_time_lab
FNDA:0,_RNvNtCs1c8bENWoAUm_15bitboard_crypto3lab14lab_block_hash
FNDA:0,_RNvNtCs1c8bENWoAUm_15bitboard_crypto3lab14lab_mine_block
FNDA:0,_RNvNtCs1c8bENWoAUm_15bitboard_crypto3lab17lab_block_effects
FNDA:0,_RNvNtCs1c8bENWoAUm_15bitboard_crypto3lab18create_coinbase_tx
FNDA:0,_RNvNtCs1c8bENWoAUm_15bitboard_crypto3lab19compute_merkle_root
FNDA:0,_RNvNtCs1c8bENWoAUm_15bitboard_crypto3lab20lab_generate_keypair
FNDA:0,_RNvNtCs1c8bENWoAUm_15bitboard_crypto3lab20lab_sign_transaction
FNDA:0,_RNvNtCs1c8bENWoAUm_15bitboard_crypto3lab20lab_validate_address
FNDA:0,_RNvNtCs1c8bENWoAUm_15bitboard_crypto3lab21lab_build_transaction
FNDA:0,_RNvNtCs1c8bENWoAUm_15bitboard_crypto3lab22regtest_create_genesis
FNDA:0,_RNvNtCs1c8bENWoAUm_15bitboard_crypto3lab26lab_sign_transaction_multi
FNDA:0,_RNvNtCs1c8bENWoAUm_15bitboard_crypto3lab32lab_address_to_script_pubkey_hex
FNDA:0,_RNvNtCs1c8bENWoAUm_15bitboard_crypto3lab33lab_build_transaction_with_change
FNDA:0,_RNvNtCs1c8bENWoAUm_15bitboard_crypto3lab8lab_txid
FNF:52
FNH:0
DA:65,0
DA:66,0
DA:67,0
DA:68,0
DA:78,0
DA:79,0
DA:80,0
DA:81,0
DA:82,0
DA:83,0
DA:84,0
DA:85,0
DA:86,0
DA:87,0
DA:89,0
DA:90,0
DA:92,0
DA:95,0
DA:96,0
DA:98,0
DA:99,0
DA:100,0
DA:101,0
DA:102,0
DA:103,0
DA:104,0
DA:106,0
DA:108,0
DA:109,0
DA:111,0
DA:112,0
DA:113,0
DA:114,0
DA:115,0
DA:116,0
DA:117,0
DA:118,0
DA:120,0
DA:121,0
DA:122,0
DA:126,0
DA:127,0
DA:128,0
DA:129,0
DA:130,0
DA:131,0
DA:132,0
DA:133,0
DA:134,0
DA:136,0
DA:137,0
DA:138,0
DA:139,0
DA:140,0
DA:141,0
DA:143,0
DA:144,0
DA:145,0
DA:146,0
DA:147,0
DA:149,0
DA:150,0
DA:152,0
DA:153,0
DA:155,0
DA:156,0
DA:157,0
DA:158,0
DA:159,0
DA:161,0
DA:162,0
DA:163,0
DA:164,0
DA:165,0
DA:166,0
DA:168,0
DA:169,0
DA:170,0
DA:171,0
DA:172,0
DA:173,0
DA:174,0
DA:177,0
DA:178,0
DA:179,0
DA:180,0
DA:181,0
DA:182,0
DA:183,0
DA:184,0
DA:185,0
DA:186,0
DA:189,0
DA:190,0
DA:191,0
DA:192,0
DA:193,0
DA:194,0
DA:196,0
DA:197,0
DA:198,0
DA:199,0
DA:200,0
DA:201,0
DA:202,0
DA:203,0
DA:205,0
DA:206,0
DA:214,0
DA:215,0
DA:216,0
DA:218,0
DA:219,0
DA:221,0
DA:222,0
DA:223,0
DA:224,0
DA:225,0
DA:226,0
DA:227,0
DA:229,0
DA:230,0
DA:231,0
DA:233,0
DA:234,0
DA:235,0
DA:236,0
DA:237,0
DA:238,0
DA:239,0
DA:241,0
DA:242,0
DA:243,0
DA:244,0
DA:245,0
DA:246,0
DA:248,0
DA:250,0
DA:251,0
DA:252,0
DA:253,0
DA:254,0
DA:255,0
DA:256,0
DA:259,0
DA:260,0
DA:261,0
DA:269,0
DA:270,0
DA:271,0
DA:272,0
DA:273,0
DA:274,0
DA:275,0
DA:277,0
DA:278,0
DA:280,0
DA:281,0
DA:283,0
DA:284,0
DA:285,0
DA:286,0
DA:288,0
DA:289,0
DA:290,0
DA:291,0
DA:292,0
DA:293,0
DA:294,0
DA:295,0
DA:296,0
DA:297,0
DA:298,0
DA:299,0
DA:301,0
DA:303,0
DA:304,0
DA:305,0
DA:306,0
DA:307,0
DA:308,0
DA:309,0
DA:310,0
DA:311,0
DA:312,0
DA:313,0
DA:314,0
DA:315,0
DA:316,0
DA:318,0
DA:319,0
DA:320,0
DA:322,0
DA:323,0
DA:324,0
DA:325,0
DA:326,0
DA:328,0
DA:329,0
DA:330,0
DA:332,0
DA:333,0
DA:334,0
DA:335,0
DA:336,0
DA:337,0
DA:338,0
DA:340,0
DA:341,0
DA:342,0
DA:343,0
DA:344,0
DA:345,0
DA:346,0
DA:348,0
DA:349,0
DA:350,0
DA:351,0
DA:352,0
DA:353,0
DA:355,0
DA:357,0
DA:358,0
DA:359,0
DA:360,0
DA:361,0
DA:362,0
DA:363,0
DA:367,0
DA:368,0
DA:369,0
DA:375,0
DA:376,0
DA:377,0
DA:378,0
DA:379,0
DA:380,0
DA:381,0
DA:382,0
DA:383,0
DA:385,0
DA:386,0
DA:387,0
DA:388,0
DA:389,0
DA:390,0
DA:392,0
DA:393,0
DA:394,0
DA:395,0
DA:397,0
DA:398,0
DA:399,0
DA:400,0
DA:401,0
DA:402,0
DA:403,0
DA:405,0
DA:406,0
DA:407,0
DA:408,0
DA:409,0
DA:410,0
DA:411,0
DA:412,0
DA:413,0
DA:414,0
DA:415,0
DA:416,0
DA:417,0
DA:418,0
DA:420,0
DA:421,0
DA:422,0
DA:424,0
DA:425,0
DA:426,0
DA:427,0
DA:428,0
DA:429,0
DA:432,0
DA:433,0
DA:434,0
DA:436,0
DA:437,0
DA:438,0
DA:439,0
DA:441,0
DA:442,0
DA:446,0
DA:447,0
DA:448,0
DA:449,0
DA:450,0
DA:451,0
DA:454,0
DA:455,0
DA:456,0
DA:457,0
DA:458,0
DA:460,0
DA:461,0
DA:462,0
DA:463,0
DA:464,0
DA:465,0
DA:469,0
DA:470,0
DA:471,0
DA:472,0
DA:474,0
DA:475,0
DA:476,0
DA:478,0
DA:479,0
DA:480,0
DA:484,0
DA:485,0
DA:486,0
DA:487,0
DA:489,0
DA:490,0
DA:494,0
DA:495,0
DA:496,0
DA:497,0
DA:499,0
DA:500,0
DA:505,0
DA:506,0
DA:508,0
DA:509,0
DA:510,0
DA:512,0
DA:513,0
DA:515,0
DA:516,0
DA:517,0
DA:518,0
DA:519,0
DA:520,0
DA:521,0
DA:522,0
DA:523,0
DA:524,0
DA:525,0
DA:526,0
DA:527,0
DA:530,0
DA:531,0
DA:532,0
DA:533,0
DA:534,0
DA:535,0
DA:536,0
DA:537,0
DA:538,0
DA:540,0
DA:541,0
DA:542,0
DA:546,0
DA:547,0
DA:548,0
DA:549,0
DA:550,0
DA:551,0
DA:552,0
DA:554,0
DA:555,0
DA:556,0
DA:557,0
DA:558,0
DA:559,0
DA:560,0
DA:561,0
DA:563,0
DA:564,0
DA:565,0
DA:566,0
DA:567,0
DA:568,0
DA:573,0
DA:574,0
DA:575,0
DA:576,0
DA:577,0
DA:578,0
DA:580,0
DA:581,0
DA:585,0
DA:586,0
DA:587,0
DA:588,0
DA:589,0
DA:590,0
DA:591,0
DA:592,0
DA:593,0
DA:594,0
DA:595,0
DA:596,0
DA:597,0
DA:599,0
DA:600,0
DA:601,0
DA:602,0
DA:603,0
DA:605,0
DA:606,0
DA:607,0
DA:608,0
DA:609,0
DA:610,0
DA:612,0
DA:613,0
DA:614,0
DA:615,0
DA:616,0
DA:618,0
DA:619,0
DA:620,0
DA:621,0
DA:622,0
DA:623,0
DA:624,0
DA:626,0
DA:627,0
DA:628,0
DA:629,0
DA:630,0
DA:631,0
DA:633,0
DA:640,0
DA:641,0
DA:642,0
DA:643,0
DA:645,0
BRF:0
BRH:0
LF:475
LH:0
end_of_record
SF:/home/radivis/projects/bitboard-pwa-wallet/crypto/src/lab_psbt.rs
FN:44,_RNCNvNtCsdHuZvB8FrmQ_15bitboard_crypto8lab_psbt30build_and_sign_lab_transaction0B5_
FN:60,_RNCNvNtCsdHuZvB8FrmQ_15bitboard_crypto8lab_psbt30build_and_sign_lab_transactions0_0B5_
FN:62,_RNCNvNtCsdHuZvB8FrmQ_15bitboard_crypto8lab_psbt30build_and_sign_lab_transactions1_0B5_
FN:65,_RNCNvNtCsdHuZvB8FrmQ_15bitboard_crypto8lab_psbt30build_and_sign_lab_transactions2_0B5_
FN:67,_RNCNvNtCsdHuZvB8FrmQ_15bitboard_crypto8lab_psbt30build_and_sign_lab_transactions3_0B5_
FN:72,_RNCNvNtCsdHuZvB8FrmQ_15bitboard_crypto8lab_psbt30build_and_sign_lab_transactions4_0B5_
FN:86,_RNCNvNtCsdHuZvB8FrmQ_15bitboard_crypto8lab_psbt30build_and_sign_lab_transactions5_0B5_
FN:90,_RNCNvNtCsdHuZvB8FrmQ_15bitboard_crypto8lab_psbt30build_and_sign_lab_transactions6_0B5_
FN:105,_RNCNvNtCsdHuZvB8FrmQ_15bitboard_crypto8lab_psbt30build_and_sign_lab_transactions7_0B5_
FN:110,_RNCNvNtCsdHuZvB8FrmQ_15bitboard_crypto8lab_psbt30build_and_sign_lab_transactions8_0B5_
FN:121,_RNCNvNtCsdHuZvB8FrmQ_15bitboard_crypto8lab_psbt30build_and_sign_lab_transactions9_0B5_
FN:130,_RNCNvNtCsdHuZvB8FrmQ_15bitboard_crypto8lab_psbt30build_and_sign_lab_transactionsa_0B5_
FN:136,_RNCNvNtCsdHuZvB8FrmQ_15bitboard_crypto8lab_psbt30build_and_sign_lab_transactionsb_0B5_
FN:29,_RNvNtCsdHuZvB8FrmQ_15bitboard_crypto8lab_psbt30build_and_sign_lab_transaction
FN:44,_RNCNvNtCs1c8bENWoAUm_15bitboard_crypto8lab_psbt30build_and_sign_lab_transaction0B5_
FN:60,_RNCNvNtCs1c8bENWoAUm_15bitboard_crypto8lab_psbt30build_and_sign_lab_transactions0_0B5_
FN:62,_RNCNvNtCs1c8bENWoAUm_15bitboard_crypto8lab_psbt30build_and_sign_lab_transactions1_0B5_
FN:65,_RNCNvNtCs1c8bENWoAUm_15bitboard_crypto8lab_psbt30build_and_sign_lab_transactions2_0B5_
FN:67,_RNCNvNtCs1c8bENWoAUm_15bitboard_crypto8lab_psbt30build_and_sign_lab_transactions3_0B5_
FN:72,_RNCNvNtCs1c8bENWoAUm_15bitboard_crypto8lab_psbt30build_and_sign_lab_transactions4_0B5_
FN:86,_RNCNvNtCs1c8bENWoAUm_15bitboard_crypto8lab_psbt30build_and_sign_lab_transactions5_0B5_
FN:90,_RNCNvNtCs1c8bENWoAUm_15bitboard_crypto8lab_psbt30build_and_sign_lab_transactions6_0B5_
FN:105,_RNCNvNtCs1c8bENWoAUm_15bitboard_crypto8lab_psbt30build_and_sign_lab_transactions7_0B5_
FN:110,_RNCNvNtCs1c8bENWoAUm_15bitboard_crypto8lab_psbt30build_and_sign_lab_transactions8_0B5_
FN:121,_RNCNvNtCs1c8bENWoAUm_15bitboard_crypto8lab_psbt30build_and_sign_lab_transactions9_0B5_
FN:130,_RNCNvNtCs1c8bENWoAUm_15bitboard_crypto8lab_psbt30build_and_sign_lab_transactionsa_0B5_
FN:136,_RNCNvNtCs1c8bENWoAUm_15bitboard_crypto8lab_psbt30build_and_sign_lab_transactionsb_0B5_
FN:29,_RNvNtCs1c8bENWoAUm_15bitboard_crypto8lab_psbt30build_and_sign_lab_transaction
FNDA:0,_RNCNvNtCsdHuZvB8FrmQ_15bitboard_crypto8lab_psbt30build_and_sign_lab_transaction0B5_
FNDA:0,_RNCNvNtCsdHuZvB8FrmQ_15bitboard_crypto8lab_psbt30build_and_sign_lab_transactions0_0B5_
FNDA:0,_RNCNvNtCsdHuZvB8FrmQ_15bitboard_crypto8lab_psbt30build_and_sign_lab_transactions1_0B5_
FNDA:0,_RNCNvNtCsdHuZvB8FrmQ_15bitboard_crypto8lab_psbt30build_and_sign_lab_transactions2_0B5_
FNDA:0,_RNCNvNtCsdHuZvB8FrmQ_15bitboard_crypto8lab_psbt30build_and_sign_lab_transactions3_0B5_
FNDA:0,_RNCNvNtCsdHuZvB8FrmQ_15bitboard_crypto8lab_psbt30build_and_sign_lab_transactions4_0B5_
FNDA:0,_RNCNvNtCsdHuZvB8FrmQ_15bitboard_crypto8lab_psbt30build_and_sign_lab_transactions5_0B5_
FNDA:0,_RNCNvNtCsdHuZvB8FrmQ_15bitboard_crypto8lab_psbt30build_and_sign_lab_transactions6_0B5_
FNDA:0,_RNCNvNtCsdHuZvB8FrmQ_15bitboard_crypto8lab_psbt30build_and_sign_lab_transactions7_0B5_
FNDA:0,_RNCNvNtCsdHuZvB8FrmQ_15bitboard_crypto8lab_psbt30build_and_sign_lab_transactions8_0B5_
FNDA:0,_RNCNvNtCsdHuZvB8FrmQ_15bitboard_crypto8lab_psbt30build_and_sign_lab_transactions9_0B5_
FNDA:0,_RNCNvNtCsdHuZvB8FrmQ_15bitboard_crypto8lab_psbt30build_and_sign_lab_transactionsa_0B5_
FNDA:0,_RNCNvNtCsdHuZvB8FrmQ_15bitboard_crypto8lab_psbt30build_and_sign_lab_transactionsb_0B5_
FNDA:0,_RNvNtCsdHuZvB8FrmQ_15bitboard_crypto8lab_psbt30build_and_sign_lab_transaction
FNDA:0,_RNCNvNtCs1c8bENWoAUm_15bitboard_crypto8lab_psbt30build_and_sign_lab_transaction0B5_
FNDA:0,_RNCNvNtCs1c8bENWoAUm_15bitboard_crypto8lab_psbt30build_and_sign_lab_transactions0_0B5_
FNDA:0,_RNCNvNtCs1c8bENWoAUm_15bitboard_crypto8lab_psbt30build_and_sign_lab_transactions1_0B5_
FNDA:0,_RNCNvNtCs1c8bENWoAUm_15bitboard_crypto8lab_psbt30build_and_sign_lab_transactions2_0B5_
FNDA:0,_RNCNvNtCs1c8bENWoAUm_15bitboard_crypto8lab_psbt30build_and_sign_lab_transactions3_0B5_
FNDA:0,_RNCNvNtCs1c8bENWoAUm_15bitboard_crypto8lab_psbt30build_and_sign_lab_transactions4_0B5_
FNDA:0,_RNCNvNtCs1c8bENWoAUm_15bitboard_crypto8lab_psbt30build_and_sign_lab_transactions5_0B5_
FNDA:0,_RNCNvNtCs1c8bENWoAUm_15bitboard_crypto8lab_psbt30build_and_sign_lab_transactions6_0B5_
FNDA:0,_RNCNvNtCs1c8bENWoAUm_15bitboard_crypto8lab_psbt30build_and_sign_lab_transactions7_0B5_
FNDA:0,_RNCNvNtCs1c8bENWoAUm_15bitboard_crypto8lab_psbt30build_and_sign_lab_transactions8_0B5_
FNDA:0,_RNCNvNtCs1c8bENWoAUm_15bitboard_crypto8lab_psbt30build_and_sign_lab_transactions9_0B5_
FNDA:0,_RNCNvNtCs1c8bENWoAUm_15bitboard_crypto8lab_psbt30build_and_sign_lab_transactionsa_0B5_
FNDA:0,_RNCNvNtCs1c8bENWoAUm_15bitboard_crypto8lab_psbt30build_and_sign_lab_transactionsb_0B5_
FNDA:0,_RNvNtCs1c8bENWoAUm_15bitboard_crypto8lab_psbt30build_and_sign_lab_transaction
FNF:14
FNH:0
DA:29,0
DA:30,0
DA:31,0
DA:32,0
DA:33,0
DA:34,0
DA:35,0
DA:36,0
DA:37,0
DA:38,0
DA:39,0
DA:40,0
DA:41,0
DA:43,0
DA:44,0
DA:46,0
DA:47,0
DA:48,0
DA:49,0
DA:50,0
DA:52,0
DA:53,0
DA:54,0
DA:55,0
DA:56,0
DA:57,0
DA:59,0
DA:60,0
DA:61,0
DA:62,0
DA:64,0
DA:65,0
DA:66,0
DA:67,0
DA:69,0
DA:70,0
DA:71,0
DA:72,0
DA:74,0
DA:76,0
DA:77,0
DA:78,0
DA:79,0
DA:80,0
DA:81,0
DA:82,0
DA:84,0
DA:85,0
DA:86,0
DA:87,0
DA:89,0
DA:90,0
DA:91,0
DA:93,0
DA:94,0
DA:95,0
DA:96,0
DA:98,0
DA:99,0
DA:100,0
DA:101,0
DA:103,0
DA:104,0
DA:105,0
DA:108,0
DA:109,0
DA:110,0
DA:113,0
DA:114,0
DA:115,0
DA:116,0
DA:117,0
DA:118,0
DA:119,0
DA:121,0
DA:122,0
DA:123,0
DA:124,0
DA:125,0
DA:126,0
DA:128,0
DA:130,0
DA:131,0
DA:133,0
DA:134,0
DA:135,0
DA:136,0
DA:138,0
DA:140,0
DA:141,0
DA:142,0
DA:143,0
DA:144,0
DA:145,0
BRF:0
BRH:0
LF:107
LH:0
end_of_record
SF:/home/radivis/projects/bitboard-pwa-wallet/crypto/src/lib.rs
FN:44,_RINvCsdHuZvB8FrmQ_15bitboard_crypto11with_walletNCNCNvB2_11sync_wallet00INtNtCsS9DhMq3zoU_8bdk_core10spk_client18SyncRequestBuilderTNtNtCs6h80aqwLHci_10bdk_wallet5types12KeychainKindmEEEB2_
FN:44,_RINvCsdHuZvB8FrmQ_15bitboard_crypto11with_walletNCNCNvB2_16full_scan_wallet00INtNtCsS9DhMq3zoU_8bdk_core10spk_client22FullScanRequestBuilderNtNtCs6h80aqwLHci_10bdk_wallet5types12KeychainKindEEB2_
FN:44,_RINvCsdHuZvB8FrmQ_15bitboard_crypto11with_walletNvNtB2_6wallet11get_balanceNtNtB2_5types11BalanceInfoEB2_
FN:59,_RINvCsdHuZvB8FrmQ_15bitboard_crypto15with_wallet_mutNCNCNvB2_11sync_wallet0s0_0INtNtCs4Vq2ZLagKfv_4core6result6ResultuNtNtB2_5error11CryptoErrorEEB2_
FN:59,_RINvCsdHuZvB8FrmQ_15bitboard_crypto15with_wallet_mutNCNCNvB2_16full_scan_wallet0s0_0INtNtCs4Vq2ZLagKfv_4core6result6ResultuNtNtB2_5error11CryptoErrorEEB2_
FN:234,_RINvCsdHuZvB8FrmQ_15bitboard_crypto5to_jsNtNtB2_5types10SyncResultEB2_
FN:48,_RNCINvCsdHuZvB8FrmQ_15bitboard_crypto11with_walletNCNCNvB4_11sync_wallet00INtNtCsS9DhMq3zoU_8bdk_core10spk_client18SyncRequestBuilderTNtNtCs6h80aqwLHci_10bdk_wallet5types12KeychainKindmEEE0B4_
FN:48,_RNCINvCsdHuZvB8FrmQ_15bitboard_crypto11with_walletNCNCNvB4_16full_scan_wallet00INtNtCsS9DhMq3zoU_8bdk_core10spk_client22FullScanRequestBuilderNtNtCs6h80aqwLHci_10bdk_wallet5types12KeychainKindEE0B4_
FN:48,_RNCINvCsdHuZvB8FrmQ_15bitboard_crypto11with_walletNvNtB4_6wallet11get_balanceNtNtB4_5types11BalanceInfoE0B4_
FN:63,_RNCINvCsdHuZvB8FrmQ_15bitboard_crypto15with_wallet_mutNCNCNvB4_11sync_wallet0s0_0INtNtCs4Vq2ZLagKfv_4core6result6ResultuNtNtB4_5error11CryptoErrorEE0B4_
FN:63,_RNCINvCsdHuZvB8FrmQ_15bitboard_crypto15with_wallet_mutNCNCNvB4_16full_scan_wallet0s0_0INtNtCs4Vq2ZLagKfv_4core6result6ResultuNtNtB4_5error11CryptoErrorEE0B4_
FN:235,_RNCINvCsdHuZvB8FrmQ_15bitboard_crypto5to_jsNtNtB4_5types10SyncResultE0B4_
FN:49,_RNCNCINvCsdHuZvB8FrmQ_15bitboard_crypto11with_walletNCNCNvB6_11sync_wallet00INtNtCsS9DhMq3zoU_8bdk_core10spk_client18SyncRequestBuilderTNtNtCs6h80aqwLHci_10bdk_wallet5types12KeychainKindmEEE00B6_
FN:52,_RNCNCINvCsdHuZvB8FrmQ_15bitboard_crypto11with_walletNCNCNvB6_11sync_wallet00INtNtCsS9DhMq3zoU_8bdk_core10spk_client18SyncRequestBuilderTNtNtCs6h80aqwLHci_10bdk_wallet5types12KeychainKindmEEE0s_0B6_
FN:49,_RNCNCINvCsdHuZvB8FrmQ_15bitboard_crypto11with_walletNCNCNvB6_16full_scan_wallet00INtNtCsS9DhMq3zoU_8bdk_core10spk_client22FullScanRequestBuilderNtNtCs6h80aqwLHci_10bdk_wallet5types12KeychainKindEE00B6_
FN:52,_RNCNCINvCsdHuZvB8FrmQ_15bitboard_crypto11with_walletNCNCNvB6_16full_scan_wallet00INtNtCsS9DhMq3zoU_8bdk_core10spk_client22FullScanRequestBuilderNtNtCs6h80aqwLHci_10bdk_wallet5types12KeychainKindEE0s_0B6_
FN:49,_RNCNCINvCsdHuZvB8FrmQ_15bitboard_crypto11with_walletNvNtB6_6wallet11get_balanceNtNtB6_5types11BalanceInfoE00B6_
FN:52,_RNCNCINvCsdHuZvB8FrmQ_15bitboard_crypto11with_walletNvNtB6_6wallet11get_balanceNtNtB6_5types11BalanceInfoE0s_0B6_
FN:64,_RNCNCINvCsdHuZvB8FrmQ_15bitboard_crypto15with_wallet_mutNCNCNvB6_11sync_wallet0s0_0INtNtCs4Vq2ZLagKfv_4core6result6ResultuNtNtB6_5error11CryptoErrorEE00B6_
FN:67,_RNCNCINvCsdHuZvB8FrmQ_15bitboard_crypto15with_wallet_mutNCNCNvB6_11sync_wallet0s0_0INtNtCs4Vq2ZLagKfv_4core6result6ResultuNtNtB6_5error11CryptoErrorEE0s_0B6_
FN:64,_RNCNCINvCsdHuZvB8FrmQ_15bitboard_crypto15with_wallet_mutNCNCNvB6_16full_scan_wallet0s0_0INtNtCs4Vq2ZLagKfv_4core6result6ResultuNtNtB6_5error11CryptoErrorEE00B6_
FN:67,_RNCNCINvCsdHuZvB8FrmQ_15bitboard_crypto15with_wallet_mutNCNCNvB6_16full_scan_wallet0s0_0INtNtCs4Vq2ZLagKfv_4core6result6ResultuNtNtB6_5error11CryptoErrorEE0s_0B6_
FN:257,_RNCNCNCNvCsdHuZvB8FrmQ_15bitboard_crypto11sync_wallet0s0_00B7_
FN:285,_RNCNCNCNvCsdHuZvB8FrmQ_15bitboard_crypto16full_scan_wallet0s0_00B7_
FN:245,_RNCNCNvCsdHuZvB8FrmQ_15bitboard_crypto11sync_wallet00B5_
FN:255,_RNCNCNvCsdHuZvB8FrmQ_15bitboard_crypto11sync_wallet0s0_0B5_
FN:252,_RNCNCNvCsdHuZvB8FrmQ_15bitboard_crypto11sync_wallet0s_0B5_
FN:273,_RNCNCNvCsdHuZvB8FrmQ_15bitboard_crypto16full_scan_wallet00B5_
FN:283,_RNCNCNvCsdHuZvB8FrmQ_15bitboard_crypto16full_scan_wallet0s0_0B5_
FN:280,_RNCNCNvCsdHuZvB8FrmQ_15bitboard_crypto16full_scan_wallet0s_0B5_
FN:350,_RNCNCNvCsdHuZvB8FrmQ_15bitboard_crypto21broadcast_transaction00B5_
FN:81,_RNCNCNvCsdHuZvB8FrmQ_15bitboard_crypto25accumulate_staged_changes00B5_
FN:242,_RNCNvCsdHuZvB8FrmQ_15bitboard_crypto11sync_wallet0B3_
FN:225,_RNCNvCsdHuZvB8FrmQ_15bitboard_crypto16export_changeset0B3_
FN:270,_RNCNvCsdHuZvB8FrmQ_15bitboard_crypto16full_scan_wallet0B3_
FN:435,_RNCNvCsdHuZvB8FrmQ_15bitboard_crypto17derive_argon2_key0B3_
FN:440,_RNCNvCsdHuZvB8FrmQ_15bitboard_crypto17derive_argon2_keys_0B3_
FN:348,_RNCNvCsdHuZvB8FrmQ_15bitboard_crypto21broadcast_transaction0B3_
FN:76,_RNCNvCsdHuZvB8FrmQ_15bitboard_crypto25accumulate_staged_changes0B3_
FN:222,_RNvCsdHuZvB8FrmQ_15bitboard_crypto16export_changeset
FN:12,_RNvCsdHuZvB8FrmQ_15bitboard_crypto16unix_seconds_now
FN:293,_RNvCsdHuZvB8FrmQ_15bitboard_crypto17build_sync_result
FN:433,_RNvCsdHuZvB8FrmQ_15bitboard_crypto17derive_argon2_key
FN:75,_RNvCsdHuZvB8FrmQ_15bitboard_crypto25accumulate_staged_changes
FN:188,_RNCNvCsdHuZvB8FrmQ_15bitboard_crypto11load_wallet0B3_
FN:190,_RNCNvCsdHuZvB8FrmQ_15bitboard_crypto11load_wallets0_0B3_
FN:191,_RNCNvCsdHuZvB8FrmQ_15bitboard_crypto11load_wallets1_0B3_
FN:189,_RNCNvCsdHuZvB8FrmQ_15bitboard_crypto11load_wallets_0B3_
FN:156,_RNCNvCsdHuZvB8FrmQ_15bitboard_crypto13create_wallet0B3_
FN:158,_RNCNvCsdHuZvB8FrmQ_15bitboard_crypto13create_wallets0_0B3_
FN:159,_RNCNvCsdHuZvB8FrmQ_15bitboard_crypto13create_wallets1_0B3_
FN:168,_RNCNvCsdHuZvB8FrmQ_15bitboard_crypto13create_wallets2_0B3_
FN:157,_RNCNvCsdHuZvB8FrmQ_15bitboard_crypto13create_wallets_0B3_
FN:314,_RNCNvCsdHuZvB8FrmQ_15bitboard_crypto17build_transaction0B3_
FN:123,_RNCNvCsdHuZvB8FrmQ_15bitboard_crypto18derive_descriptors0B3_
FN:413,_RNCNvCsdHuZvB8FrmQ_15bitboard_crypto22get_lab_change_address0B3_
FN:419,_RNCNvCsdHuZvB8FrmQ_15bitboard_crypto22get_lab_change_addresss_0B3_
FN:336,_RNCNvCsdHuZvB8FrmQ_15bitboard_crypto28sign_and_extract_transaction0B3_
FN:338,_RNCNvCsdHuZvB8FrmQ_15bitboard_crypto28sign_and_extract_transactions_0B3_
FN:381,_RNCNvCsdHuZvB8FrmQ_15bitboard_crypto30build_and_sign_lab_transaction0B3_
FN:389,_RNCNvCsdHuZvB8FrmQ_15bitboard_crypto30build_and_sign_lab_transactions0_0B3_
FN:399,_RNCNvCsdHuZvB8FrmQ_15bitboard_crypto30build_and_sign_lab_transactions1_0B3_
FN:382,_RNCNvCsdHuZvB8FrmQ_15bitboard_crypto30build_and_sign_lab_transactions_0B3_
FN:212,_RNvCsdHuZvB8FrmQ_15bitboard_crypto11get_balance
FN:173,_RNvCsdHuZvB8FrmQ_15bitboard_crypto11load_wallet
FN:242,_RNvCsdHuZvB8FrmQ_15bitboard_crypto11sync_wallet
FN:135,_RNvCsdHuZvB8FrmQ_15bitboard_crypto13create_wallet
FN:198,_RNvCsdHuZvB8FrmQ_15bitboard_crypto15get_new_address
FN:270,_RNvCsdHuZvB8FrmQ_15bitboard_crypto16full_scan_wallet
FN:307,_RNvCsdHuZvB8FrmQ_15bitboard_crypto17build_transaction
FN:98,_RNvCsdHuZvB8FrmQ_15bitboard_crypto17generate_mnemonic
FN:103,_RNvCsdHuZvB8FrmQ_15bitboard_crypto17validate_mnemonic
FN:111,_RNvCsdHuZvB8FrmQ_15bitboard_crypto18derive_descriptors
FN:206,_RNvCsdHuZvB8FrmQ_15bitboard_crypto19get_current_address
FN:362,_RNvCsdHuZvB8FrmQ_15bitboard_crypto20get_transaction_list
FN:348,_RNvCsdHuZvB8FrmQ_15bitboard_crypto21broadcast_transaction
FN:412,_RNvCsdHuZvB8FrmQ_15bitboard_crypto22get_lab_change_address
FN:333,_RNvCsdHuZvB8FrmQ_15bitboard_crypto28sign_and_extract_transaction
FN:374,_RNvCsdHuZvB8FrmQ_15bitboard_crypto30build_and_sign_lab_transaction
FN:33,_RNvCsdHuZvB8FrmQ_15bitboard_crypto4init
FN:93,_RNvCsdHuZvB8FrmQ_15bitboard_crypto5greet
FN:44,_RINvCs1c8bENWoAUm_15bitboard_crypto11with_walletNCNCNvB2_11sync_wallet00INtNtCsS9DhMq3zoU_8bdk_core10spk_client18SyncRequestBuilderTNtNtCs6h80aqwLHci_10bdk_wallet5types12KeychainKindmEEEB2_
FN:44,_RINvCs1c8bENWoAUm_15bitboard_crypto11with_walletNCNCNvB2_16full_scan_wallet00INtNtCsS9DhMq3zoU_8bdk_core10spk_client22FullScanRequestBuilderNtNtCs6h80aqwLHci_10bdk_wallet5types12KeychainKindEEB2_
FN:44,_RINvCs1c8bENWoAUm_15bitboard_crypto11with_walletNCNvB2_22get_lab_change_addresss_0NtNtCs456UZznmu7y_5alloc6string6StringEB2_
FN:44,_RINvCs1c8bENWoAUm_15bitboard_crypto11with_walletNCNvB2_28sign_and_extract_transactions_0INtNtCs4Vq2ZLagKfv_4core6result6ResultbNtNtB2_5error11CryptoErrorEEB2_
FN:44,_RINvCs1c8bENWoAUm_15bitboard_crypto11with_walletNvNtB2_6wallet11get_balanceNtNtB2_5types11BalanceInfoEB2_
FN:44,_RINvCs1c8bENWoAUm_15bitboard_crypto11with_walletNvNtB2_6wallet19get_current_addressNtNtCs456UZznmu7y_5alloc6string6StringEB2_
FN:44,_RINvCs1c8bENWoAUm_15bitboard_crypto11with_walletNvNtB2_6wallet20get_transaction_listINtNtCs456UZznmu7y_5alloc3vec3VecNtNtB2_5types18TransactionDetailsEEB2_
FN:59,_RINvCs1c8bENWoAUm_15bitboard_crypto15with_wallet_mutNCNCNvB2_11sync_wallet0s0_0INtNtCs4Vq2ZLagKfv_4core6result6ResultuNtNtB2_5error11CryptoErrorEEB2_
FN:59,_RINvCs1c8bENWoAUm_15bitboard_crypto15with_wallet_mutNCNCNvB2_16full_scan_wallet0s0_0INtNtCs4Vq2ZLagKfv_4core6result6ResultuNtNtB2_5error11CryptoErrorEEB2_
FN:59,_RINvCs1c8bENWoAUm_15bitboard_crypto15with_wallet_mutNCNvB2_17build_transaction0INtNtCs4Vq2ZLagKfv_4core6result6ResultNtNtCsaqzHeJDk4bf_7bitcoin4psbt4PsbtNtNtB2_5error11CryptoErrorEEB2_
FN:59,_RINvCs1c8bENWoAUm_15bitboard_crypto15with_wallet_mutNCNvB2_30build_and_sign_lab_transactions0_0INtNtCs4Vq2ZLagKfv_4core6result6ResultNtNtB2_8lab_psbt26LabSignedTransactionResultNtNtB2_5error11CryptoErrorEEB2_
FN:59,_RINvCs1c8bENWoAUm_15bitboard_crypto15with_wallet_mutNvNtB2_6wallet15get_new_addressNtNtCs456UZznmu7y_5alloc6string6StringEB2_
FN:234,_RINvCs1c8bENWoAUm_15bitboard_crypto5to_jsINtNtCs456UZznmu7y_5alloc3vec3VecNtNtB2_5types18TransactionDetailsEEB2_
FN:234,_RINvCs1c8bENWoAUm_15bitboard_crypto5to_jsNtNtB2_5types10SyncResultEB2_
FN:48,_RNCINvCs1c8bENWoAUm_15bitboard_crypto11with_walletNCNCNvB4_11sync_wallet00INtNtCsS9DhMq3zoU_8bdk_core10spk_client18SyncRequestBuilderTNtNtCs6h80aqwLHci_10bdk_wallet5types12KeychainKindmEEE0B4_
FN:48,_RNCINvCs1c8bENWoAUm_15bitboard_crypto11with_walletNCNCNvB4_16full_scan_wallet00INtNtCsS9DhMq3zoU_8bdk_core10spk_client22FullScanRequestBuilderNtNtCs6h80aqwLHci_10bdk_wallet5types12KeychainKindEE0B4_
FN:48,_RNCINvCs1c8bENWoAUm_15bitboard_crypto11with_walletNCNvB4_22get_lab_change_addresss_0NtNtCs456UZznmu7y_5alloc6string6StringE0B4_
FN:48,_RNCINvCs1c8bENWoAUm_15bitboard_crypto11with_walletNCNvB4_28sign_and_extract_transactions_0INtNtCs4Vq2ZLagKfv_4core6result6ResultbNtNtB4_5error11CryptoErrorEE0B4_
FN:48,_RNCINvCs1c8bENWoAUm_15bitboard_crypto11with_walletNvNtB4_6wallet11get_balanceNtNtB4_5types11BalanceInfoE0B4_
FN:48,_RNCINvCs1c8bENWoAUm_15bitboard_crypto11with_walletNvNtB4_6wallet19get_current_addressNtNtCs456UZznmu7y_5alloc6string6StringE0B4_
FN:48,_RNCINvCs1c8bENWoAUm_15bitboard_crypto11with_walletNvNtB4_6wallet20get_transaction_listINtNtCs456UZznmu7y_5alloc3vec3VecNtNtB4_5types18TransactionDetailsEE0B4_
FN:63,_RNCINvCs1c8bENWoAUm_15bitboard_crypto15with_wallet_mutNCNCNvB4_11sync_wallet0s0_0INtNtCs4Vq2ZLagKfv_4core6result6ResultuNtNtB4_5error11CryptoErrorEE0B4_
FN:63,_RNCINvCs1c8bENWoAUm_15bitboard_crypto15with_wallet_mutNCNCNvB4_16full_scan_wallet0s0_0INtNtCs4Vq2ZLagKfv_4core6result6ResultuNtNtB4_5error11CryptoErrorEE0B4_
FN:63,_RNCINvCs1c8bENWoAUm_15bitboard_crypto15with_wallet_mutNCNvB4_17build_transaction0INtNtCs4Vq2ZLagKfv_4core6result6ResultNtNtCsaqzHeJDk4bf_7bitcoin4psbt4PsbtNtNtB4_5error11CryptoErrorEE0B4_
FN:63,_RNCINvCs1c8bENWoAUm_15bitboard_crypto15with_wallet_mutNCNvB4_30build_and_sign_lab_transactions0_0INtNtCs4Vq2ZLagKfv_4core6result6ResultNtNtB4_8lab_psbt26LabSignedTransactionResultNtNtB4_5error11CryptoErrorEE0B4_
FN:63,_RNCINvCs1c8bENWoAUm_15bitboard_crypto15with_wallet_mutNvNtB4_6wallet15get_new_addressNtNtCs456UZznmu7y_5alloc6string6StringE0B4_
FN:235,_RNCINvCs1c8bENWoAUm_15bitboard_crypto5to_jsINtNtCs456UZznmu7y_5alloc3vec3VecNtNtB4_5types18TransactionDetailsEE0B4_
FN:235,_RNCINvCs1c8bENWoAUm_15bitboard_crypto5to_jsNtNtB4_5types10SyncResultE0B4_
FN:49,_RNCNCINvCs1c8bENWoAUm_15bitboard_crypto11with_walletNCNCNvB6_11sync_wallet00INtNtCsS9DhMq3zoU_8bdk_core10spk_client18SyncRequestBuilderTNtNtCs6h80aqwLHci_10bdk_wallet5types12KeychainKindmEEE00B6_
FN:52,_RNCNCINvCs1c8bENWoAUm_15bitboard_crypto11with_walletNCNCNvB6_11sync_wallet00INtNtCsS9DhMq3zoU_8bdk_core10spk_client18SyncRequestBuilderTNtNtCs6h80aqwLHci_10bdk_wallet5types12KeychainKindmEEE0s_0B6_
FN:49,_RNCNCINvCs1c8bENWoAUm_15bitboard_crypto11with_walletNCNCNvB6_16full_scan_wallet00INtNtCsS9DhMq3zoU_8bdk_core10spk_client22FullScanRequestBuilderNtNtCs6h80aqwLHci_10bdk_wallet5types12KeychainKindEE00B6_
FN:52,_RNCNCINvCs1c8bENWoAUm_15bitboard_crypto11with_walletNCNCNvB6_16full_scan_wallet00INtNtCsS9DhMq3zoU_8bdk_core10spk_client22FullScanRequestBuilderNtNtCs6h80aqwLHci_10bdk_wallet5types12KeychainKindEE0s_0B6_
FN:49,_RNCNCINvCs1c8bENWoAUm_15bitboard_crypto11with_walletNCNvB6_22get_lab_change_addresss_0NtNtCs456UZznmu7y_5alloc6string6StringE00B6_
FN:52,_RNCNCINvCs1c8bENWoAUm_15bitboard_crypto11with_walletNCNvB6_22get_lab_change_addresss_0NtNtCs456UZznmu7y_5alloc6string6StringE0s_0B6_
FN:49,_RNCNCINvCs1c8bENWoAUm_15bitboard_crypto11with_walletNCNvB6_28sign_and_extract_transactions_0INtNtCs4Vq2ZLagKfv_4core6result6ResultbNtNtB6_5error11CryptoErrorEE00B6_
FN:52,_RNCNCINvCs1c8bENWoAUm_15bitboard_crypto11with_walletNCNvB6_28sign_and_extract_transactions_0INtNtCs4Vq2ZLagKfv_4core6result6ResultbNtNtB6_5error11CryptoErrorEE0s_0B6_
FN:49,_RNCNCINvCs1c8bENWoAUm_15bitboard_crypto11with_walletNvNtB6_6wallet11get_balanceNtNtB6_5types11BalanceInfoE00B6_
FN:52,_RNCNCINvCs1c8bENWoAUm_15bitboard_crypto11with_walletNvNtB6_6wallet11get_balanceNtNtB6_5types11BalanceInfoE0s_0B6_
FN:49,_RNCNCINvCs1c8bENWoAUm_15bitboard_crypto11with_walletNvNtB6_6wallet19get_current_addressNtNtCs456UZznmu7y_5alloc6string6StringE00B6_
FN:52,_RNCNCINvCs1c8bENWoAUm_15bitboard_crypto11with_walletNvNtB6_6wallet19get_current_addressNtNtCs456UZznmu7y_5alloc6string6StringE0s_0B6_
FN:49,_RNCNCINvCs1c8bENWoAUm_15bitboard_crypto11with_walletNvNtB6_6wallet20get_transaction_listINtNtCs456UZznmu7y_5alloc3vec3VecNtNtB6_5types18TransactionDetailsEE00B6_
FN:52,_RNCNCINvCs1c8bENWoAUm_15bitboard_crypto11with_walletNvNtB6_6wallet20get_transaction_listINtNtCs456UZznmu7y_5alloc3vec3VecNtNtB6_5types18TransactionDetailsEE0s_0B6_
FN:64,_RNCNCINvCs1c8bENWoAUm_15bitboard_crypto15with_wallet_mutNCNCNvB6_11sync_wallet0s0_0INtNtCs4Vq2ZLagKfv_4core6result6ResultuNtNtB6_5error11CryptoErrorEE00B6_
FN:67,_RNCNCINvCs1c8bENWoAUm_15bitboard_crypto15with_wallet_mutNCNCNvB6_11sync_wallet0s0_0INtNtCs4Vq2ZLagKfv_4core6result6ResultuNtNtB6_5error11CryptoErrorEE0s_0B6_
FN:64,_RNCNCINvCs1c8bENWoAUm_15bitboard_crypto15with_wallet_mutNCNCNvB6_16full_scan_wallet0s0_0INtNtCs4Vq2ZLagKfv_4core6result6ResultuNtNtB6_5error11CryptoErrorEE00B6_
FN:67,_RNCNCINvCs1c8bENWoAUm_15bitboard_crypto15with_wallet_mutNCNCNvB6_16full_scan_wallet0s0_0INtNtCs4Vq2ZLagKfv_4core6result6ResultuNtNtB6_5error11CryptoErrorEE0s_0B6_
FN:64,_RNCNCINvCs1c8bENWoAUm_15bitboard_crypto15with_wallet_mutNCNvB6_17build_transaction0INtNtCs4Vq2ZLagKfv_4core6result6ResultNtNtCsaqzHeJDk4bf_7bitcoin4psbt4PsbtNtNtB6_5error11CryptoErrorEE00B6_
FN:67,_RNCNCINvCs1c8bENWoAUm_15bitboard_crypto15with_wallet_mutNCNvB6_17build_transaction0INtNtCs4Vq2ZLagKfv_4core6result6ResultNtNtCsaqzHeJDk4bf_7bitcoin4psbt4PsbtNtNtB6_5error11CryptoErrorEE0s_0B6_
FN:64,_RNCNCINvCs1c8bENWoAUm_15bitboard_crypto15with_wallet_mutNCNvB6_30build_and_sign_lab_transactions0_0INtNtCs4Vq2ZLagKfv_4core6result6ResultNtNtB6_8lab_psbt26LabSignedTransactionResultNtNtB6_5error11CryptoErrorEE00B6_
FN:67,_RNCNCINvCs1c8bENWoAUm_15bitboard_crypto15with_wallet_mutNCNvB6_30build_and_sign_lab_transactions0_0INtNtCs4Vq2ZLagKfv_4core6result6ResultNtNtB6_8lab_psbt26LabSignedTransactionResultNtNtB6_5error11CryptoErrorEE0s_0B6_
FN:64,_RNCNCINvCs1c8bENWoAUm_15bitboard_crypto15with_wallet_mutNvNtB6_6wallet15get_new_addressNtNtCs456UZznmu7y_5alloc6string6StringE00B6_
FN:67,_RNCNCINvCs1c8bENWoAUm_15bitboard_crypto15with_wallet_mutNvNtB6_6wallet15get_new_addressNtNtCs456UZznmu7y_5alloc6string6StringE0s_0B6_
FN:257,_RNCNCNCNvCs1c8bENWoAUm_15bitboard_crypto11sync_wallet0s0_00B7_
FN:285,_RNCNCNCNvCs1c8bENWoAUm_15bitboard_crypto16full_scan_wallet0s0_00B7_
FN:245,_RNCNCNvCs1c8bENWoAUm_15bitboard_crypto11sync_wallet00B5_
FN:255,_RNCNCNvCs1c8bENWoAUm_15bitboard_crypto11sync_wallet0s0_0B5_
FN:252,_RNCNCNvCs1c8bENWoAUm_15bitboard_crypto11sync_wallet0s_0B5_
FN:273,_RNCNCNvCs1c8bENWoAUm_15bitboard_crypto16full_scan_wallet00B5_
FN:283,_RNCNCNvCs1c8bENWoAUm_15bitboard_crypto16full_scan_wallet0s0_0B5_
FN:280,_RNCNCNvCs1c8bENWoAUm_15bitboard_crypto16full_scan_wallet0s_0B5_
FN:350,_RNCNCNvCs1c8bENWoAUm_15bitboard_crypto21broadcast_transaction00B5_
FN:81,_RNCNCNvCs1c8bENWoAUm_15bitboard_crypto25accumulate_staged_changes00B5_
FN:188,_RNCNvCs1c8bENWoAUm_15bitboard_crypto11load_wallet0B3_
FN:190,_RNCNvCs1c8bENWoAUm_15bitboard_crypto11load_wallets0_0B3_
FN:191,_RNCNvCs1c8bENWoAUm_15bitboard_crypto11load_wallets1_0B3_
FN:189,_RNCNvCs1c8bENWoAUm_15bitboard_crypto11load_wallets_0B3_
FN:242,_RNCNvCs1c8bENWoAUm_15bitboard_crypto11sync_wallet0B3_
FN:156,_RNCNvCs1c8bENWoAUm_15bitboard_crypto13create_wallet0B3_
FN:158,_RNCNvCs1c8bENWoAUm_15bitboard_crypto13create_wallets0_0B3_
FN:159,_RNCNvCs1c8bENWoAUm_15bitboard_crypto13create_wallets1_0B3_
FN:168,_RNCNvCs1c8bENWoAUm_15bitboard_crypto13create_wallets2_0B3_
FN:157,_RNCNvCs1c8bENWoAUm_15bitboard_crypto13create_wallets_0B3_
FN:225,_RNCNvCs1c8bENWoAUm_15bitboard_crypto16export_changeset0B3_
FN:270,_RNCNvCs1c8bENWoAUm_15bitboard_crypto16full_scan_wallet0B3_
FN:314,_RNCNvCs1c8bENWoAUm_15bitboard_crypto17build_transaction0B3_
FN:435,_RNCNvCs1c8bENWoAUm_15bitboard_crypto17derive_argon2_key0B3_
FN:440,_RNCNvCs1c8bENWoAUm_15bitboard_crypto17derive_argon2_keys_0B3_
FN:123,_RNCNvCs1c8bENWoAUm_15bitboard_crypto18derive_descriptors0B3_
FN:348,_RNCNvCs1c8bENWoAUm_15bitboard_crypto21broadcast_transaction0B3_
FN:413,_RNCNvCs1c8bENWoAUm_15bitboard_crypto22get_lab_change_address0B3_
FN:419,_RNCNvCs1c8bENWoAUm_15bitboard_crypto22get_lab_change_addresss_0B3_
FN:76,_RNCNvCs1c8bENWoAUm_15bitboard_crypto25accumulate_staged_changes0B3_
FN:336,_RNCNvCs1c8bENWoAUm_15bitboard_crypto28sign_and_extract_transaction0B3_
FN:338,_RNCNvCs1c8bENWoAUm_15bitboard_crypto28sign_and_extract_transactions_0B3_
FN:381,_RNCNvCs1c8bENWoAUm_15bitboard_crypto30build_and_sign_lab_transaction0B3_
FN:389,_RNCNvCs1c8bENWoAUm_15bitboard_crypto30build_and_sign_lab_transactions0_0B3_
FN:399,_RNCNvCs1c8bENWoAUm_15bitboard_crypto30build_and_sign_lab_transactions1_0B3_
FN:382,_RNCNvCs1c8bENWoAUm_15bitboard_crypto30build_and_sign_lab_transactions_0B3_
FN:212,_RNvCs1c8bENWoAUm_15bitboard_crypto11get_balance
FN:173,_RNvCs1c8bENWoAUm_15bitboard_crypto11load_wallet
FN:242,_RNvCs1c8bENWoAUm_15bitboard_crypto11sync_wallet
FN:135,_RNvCs1c8bENWoAUm_15bitboard_crypto13create_wallet
FN:198,_RNvCs1c8bENWoAUm_15bitboard_crypto15get_new_address
FN:222,_RNvCs1c8bENWoAUm_15bitboard_crypto16export_changeset
FN:270,_RNvCs1c8bENWoAUm_15bitboard_crypto16full_scan_wallet
FN:12,_RNvCs1c8bENWoAUm_15bitboard_crypto16unix_seconds_now
FN:293,_RNvCs1c8bENWoAUm_15bitboard_crypto17build_sync_result
FN:307,_RNvCs1c8bENWoAUm_15bitboard_crypto17build_transaction
FN:433,_RNvCs1c8bENWoAUm_15bitboard_crypto17derive_argon2_key
FN:98,_RNvCs1c8bENWoAUm_15bitboard_crypto17generate_mnemonic
FN:103,_RNvCs1c8bENWoAUm_15bitboard_crypto17validate_mnemonic
FN:111,_RNvCs1c8bENWoAUm_15bitboard_crypto18derive_descriptors
FN:206,_RNvCs1c8bENWoAUm_15bitboard_crypto19get_current_address
FN:362,_RNvCs1c8bENWoAUm_15bitboard_crypto20get_transaction_list
FN:348,_RNvCs1c8bENWoAUm_15bitboard_crypto21broadcast_transaction
FN:412,_RNvCs1c8bENWoAUm_15bitboard_crypto22get_lab_change_address
FN:75,_RNvCs1c8bENWoAUm_15bitboard_crypto25accumulate_staged_changes
FN:333,_RNvCs1c8bENWoAUm_15bitboard_crypto28sign_and_extract_transaction
FN:374,_RNvCs1c8bENWoAUm_15bitboard_crypto30build_and_sign_lab_transaction
FN:33,_RNvCs1c8bENWoAUm_15bitboard_crypto4init
FN:93,_RNvCs1c8bENWoAUm_15bitboard_crypto5greet
FNDA:0,_RINvCsdHuZvB8FrmQ_15bitboard_crypto11with_walletNCNCNvB2_11sync_wallet00INtNtCsS9DhMq3zoU_8bdk_core10spk_client18SyncRequestBuilderTNtNtCs6h80aqwLHci_10bdk_wallet5types12KeychainKindmEEEB2_
FNDA:0,_RINvCsdHuZvB8FrmQ_15bitboard_crypto11with_walletNCNCNvB2_16full_scan_wallet00INtNtCsS9DhMq3zoU_8bdk_core10spk_client22FullScanRequestBuilderNtNtCs6h80aqwLHci_10bdk_wallet5types12KeychainKindEEB2_
FNDA:0,_RINvCsdHuZvB8FrmQ_15bitboard_crypto11with_walletNvNtB2_6wallet11get_balanceNtNtB2_5types11BalanceInfoEB2_
FNDA:0,_RINvCsdHuZvB8FrmQ_15bitboard_crypto15with_wallet_mutNCNCNvB2_11sync_wallet0s0_0INtNtCs4Vq2ZLagKfv_4core6result6ResultuNtNtB2_5error11CryptoErrorEEB2_
FNDA:0,_RINvCsdHuZvB8FrmQ_15bitboard_crypto15with_wallet_mutNCNCNvB2_16full_scan_wallet0s0_0INtNtCs4Vq2ZLagKfv_4core6result6ResultuNtNtB2_5error11CryptoErrorEEB2_
FNDA:0,_RINvCsdHuZvB8FrmQ_15bitboard_crypto5to_jsNtNtB2_5types10SyncResultEB2_
FNDA:0,_RNCINvCsdHuZvB8FrmQ_15bitboard_crypto11with_walletNCNCNvB4_11sync_wallet00INtNtCsS9DhMq3zoU_8bdk_core10spk_client18SyncRequestBuilderTNtNtCs6h80aqwLHci_10bdk_wallet5types12KeychainKindmEEE0B4_
FNDA:0,_RNCINvCsdHuZvB8FrmQ_15bitboard_crypto11with_walletNCNCNvB4_16full_scan_wallet00INtNtCsS9DhMq3zoU_8bdk_core10spk_client22FullScanRequestBuilderNtNtCs6h80aqwLHci_10bdk_wallet5types12KeychainKindEE0B4_
FNDA:0,_RNCINvCsdHuZvB8FrmQ_15bitboard_crypto11with_walletNvNtB4_6wallet11get_balanceNtNtB4_5types11BalanceInfoE0B4_
FNDA:0,_RNCINvCsdHuZvB8FrmQ_15bitboard_crypto15with_wallet_mutNCNCNvB4_11sync_wallet0s0_0INtNtCs4Vq2ZLagKfv_4core6result6ResultuNtNtB4_5error11CryptoErrorEE0B4_
FNDA:0,_RNCINvCsdHuZvB8FrmQ_15bitboard_crypto15with_wallet_mutNCNCNvB4_16full_scan_wallet0s0_0INtNtCs4Vq2ZLagKfv_4core6result6ResultuNtNtB4_5error11CryptoErrorEE0B4_
FNDA:0,_RNCINvCsdHuZvB8FrmQ_15bitboard_crypto5to_jsNtNtB4_5types10SyncResultE0B4_
FNDA:0,_RNCNCINvCsdHuZvB8FrmQ_15bitboard_crypto11with_walletNCNCNvB6_11sync_wallet00INtNtCsS9DhMq3zoU_8bdk_core10spk_client18SyncRequestBuilderTNtNtCs6h80aqwLHci_10bdk_wallet5types12KeychainKindmEEE00B6_
FNDA:0,_RNCNCINvCsdHuZvB8FrmQ_15bitboard_crypto11with_walletNCNCNvB6_11sync_wallet00INtNtCsS9DhMq3zoU_8bdk_core10spk_client18SyncRequestBuilderTNtNtCs6h80aqwLHci_10bdk_wallet5types12KeychainKindmEEE0s_0B6_
FNDA:0,_RNCNCINvCsdHuZvB8FrmQ_15bitboard_crypto11with_walletNCNCNvB6_16full_scan_wallet00INtNtCsS9DhMq3zoU_8bdk_core10spk_client22FullScanRequestBuilderNtNtCs6h80aqwLHci_10bdk_wallet5types12KeychainKindEE00B6_
FNDA:0,_RNCNCINvCsdHuZvB8FrmQ_15bitboard_crypto11with_walletNCNCNvB6_16full_scan_wallet00INtNtCsS9DhMq3zoU_8bdk_core10spk_client22FullScanRequestBuilderNtNtCs6h80aqwLHci_10bdk_wallet5types12KeychainKindEE0s_0B6_
FNDA:0,_RNCNCINvCsdHuZvB8FrmQ_15bitboard_crypto11with_walletNvNtB6_6wallet11get_balanceNtNtB6_5types11BalanceInfoE00B6_
FNDA:0,_RNCNCINvCsdHuZvB8FrmQ_15bitboard_crypto11with_walletNvNtB6_6wallet11get_balanceNtNtB6_5types11BalanceInfoE0s_0B6_
FNDA:0,_RNCNCINvCsdHuZvB8FrmQ_15bitboard_crypto15with_wallet_mutNCNCNvB6_11sync_wallet0s0_0INtNtCs4Vq2ZLagKfv_4core6result6ResultuNtNtB6_5error11CryptoErrorEE00B6_
FNDA:0,_RNCNCINvCsdHuZvB8FrmQ_15bitboard_crypto15with_wallet_mutNCNCNvB6_11sync_wallet0s0_0INtNtCs4Vq2ZLagKfv_4core6result6ResultuNtNtB6_5error11CryptoErrorEE0s_0B6_
FNDA:0,_RNCNCINvCsdHuZvB8FrmQ_15bitboard_crypto15with_wallet_mutNCNCNvB6_16full_scan_wallet0s0_0INtNtCs4Vq2ZLagKfv_4core6result6ResultuNtNtB6_5error11CryptoErrorEE00B6_
FNDA:0,_RNCNCINvCsdHuZvB8FrmQ_15bitboard_crypto15with_wallet_mutNCNCNvB6_16full_scan_wallet0s0_0INtNtCs4Vq2ZLagKfv_4core6result6ResultuNtNtB6_5error11CryptoErrorEE0s_0B6_
FNDA:0,_RNCNCNCNvCsdHuZvB8FrmQ_15bitboard_crypto11sync_wallet0s0_00B7_
FNDA:0,_RNCNCNCNvCsdHuZvB8FrmQ_15bitboard_crypto16full_scan_wallet0s0_00B7_
FNDA:0,_RNCNCNvCsdHuZvB8FrmQ_15bitboard_crypto11sync_wallet00B5_
FNDA:0,_RNCNCNvCsdHuZvB8FrmQ_15bitboard_crypto11sync_wallet0s0_0B5_
FNDA:0,_RNCNCNvCsdHuZvB8FrmQ_15bitboard_crypto11sync_wallet0s_0B5_
FNDA:0,_RNCNCNvCsdHuZvB8FrmQ_15bitboard_crypto16full_scan_wallet00B5_
FNDA:0,_RNCNCNvCsdHuZvB8FrmQ_15bitboard_crypto16full_scan_wallet0s0_0B5_
FNDA:0,_RNCNCNvCsdHuZvB8FrmQ_15bitboard_crypto16full_scan_wallet0s_0B5_
FNDA:0,_RNCNCNvCsdHuZvB8FrmQ_15bitboard_crypto21broadcast_transaction00B5_
FNDA:0,_RNCNCNvCsdHuZvB8FrmQ_15bitboard_crypto25accumulate_staged_changes00B5_
FNDA:0,_RNCNvCsdHuZvB8FrmQ_15bitboard_crypto11sync_wallet0B3_
FNDA:0,_RNCNvCsdHuZvB8FrmQ_15bitboard_crypto16export_changeset0B3_
FNDA:0,_RNCNvCsdHuZvB8FrmQ_15bitboard_crypto16full_scan_wallet0B3_
FNDA:0,_RNCNvCsdHuZvB8FrmQ_15bitboard_crypto17derive_argon2_key0B3_
FNDA:0,_RNCNvCsdHuZvB8FrmQ_15bitboard_crypto17derive_argon2_keys_0B3_
FNDA:0,_RNCNvCsdHuZvB8FrmQ_15bitboard_crypto21broadcast_transaction0B3_
FNDA:0,_RNCNvCsdHuZvB8FrmQ_15bitboard_crypto25accumulate_staged_changes0B3_
FNDA:0,_RNvCsdHuZvB8FrmQ_15bitboard_crypto16export_changeset
FNDA:0,_RNvCsdHuZvB8FrmQ_15bitboard_crypto16unix_seconds_now
FNDA:0,_RNvCsdHuZvB8FrmQ_15bitboard_crypto17build_sync_result
FNDA:10,_RNvCsdHuZvB8FrmQ_15bitboard_crypto17derive_argon2_key
FNDA:0,_RNvCsdHuZvB8FrmQ_15bitboard_crypto25accumulate_staged_changes
FNDA:0,_RNCNvCsdHuZvB8FrmQ_15bitboard_crypto11load_wallet0B3_
FNDA:0,_RNCNvCsdHuZvB8FrmQ_15bitboard_crypto11load_wallets0_0B3_
FNDA:0,_RNCNvCsdHuZvB8FrmQ_15bitboard_crypto11load_wallets1_0B3_
FNDA:0,_RNCNvCsdHuZvB8FrmQ_15bitboard_crypto11load_wallets_0B3_
FNDA:0,_RNCNvCsdHuZvB8FrmQ_15bitboard_crypto13create_wallet0B3_
FNDA:0,_RNCNvCsdHuZvB8FrmQ_15bitboard_crypto13create_wallets0_0B3_
FNDA:0,_RNCNvCsdHuZvB8FrmQ_15bitboard_crypto13create_wallets1_0B3_
FNDA:0,_RNCNvCsdHuZvB8FrmQ_15bitboard_crypto13create_wallets2_0B3_
FNDA:0,_RNCNvCsdHuZvB8FrmQ_15bitboard_crypto13create_wallets_0B3_
FNDA:0,_RNCNvCsdHuZvB8FrmQ_15bitboard_crypto17build_transaction0B3_
FNDA:0,_RNCNvCsdHuZvB8FrmQ_15bitboard_crypto18derive_descriptors0B3_
FNDA:0,_RNCNvCsdHuZvB8FrmQ_15bitboard_crypto22get_lab_change_address0B3_
FNDA:0,_RNCNvCsdHuZvB8FrmQ_15bitboard_crypto22get_lab_change_addresss_0B3_
FNDA:0,_RNCNvCsdHuZvB8FrmQ_15bitboard_crypto28sign_and_extract_transaction0B3_
FNDA:0,_RNCNvCsdHuZvB8FrmQ_15bitboard_crypto28sign_and_extract_transactions_0B3_
FNDA:0,_RNCNvCsdHuZvB8FrmQ_15bitboard_crypto30build_and_sign_lab_transaction0B3_
FNDA:0,_RNCNvCsdHuZvB8FrmQ_15bitboard_crypto30build_and_sign_lab_transactions0_0B3_
FNDA:0,_RNCNvCsdHuZvB8FrmQ_15bitboard_crypto30build_and_sign_lab_transactions1_0B3_
FNDA:0,_RNCNvCsdHuZvB8FrmQ_15bitboard_crypto30build_and_sign_lab_transactions_0B3_
FNDA:0,_RNvCsdHuZvB8FrmQ_15bitboard_crypto11get_balance
FNDA:0,_RNvCsdHuZvB8FrmQ_15bitboard_crypto11load_wallet
FNDA:0,_RNvCsdHuZvB8FrmQ_15bitboard_crypto11sync_wallet
FNDA:0,_RNvCsdHuZvB8FrmQ_15bitboard_crypto13create_wallet
FNDA:0,_RNvCsdHuZvB8FrmQ_15bitboard_crypto15get_new_address
FNDA:0,_RNvCsdHuZvB8FrmQ_15bitboard_crypto16full_scan_wallet
FNDA:0,_RNvCsdHuZvB8FrmQ_15bitboard_crypto17build_transaction
FNDA:0,_RNvCsdHuZvB8FrmQ_15bitboard_crypto17generate_mnemonic
FNDA:0,_RNvCsdHuZvB8FrmQ_15bitboard_crypto17validate_mnemonic
FNDA:0,_RNvCsdHuZvB8FrmQ_15bitboard_crypto18derive_descriptors
FNDA:0,_RNvCsdHuZvB8FrmQ_15bitboard_crypto19get_current_address
FNDA:0,_RNvCsdHuZvB8FrmQ_15bitboard_crypto20get_transaction_list
FNDA:0,_RNvCsdHuZvB8FrmQ_15bitboard_crypto21broadcast_transaction
FNDA:0,_RNvCsdHuZvB8FrmQ_15bitboard_crypto22get_lab_change_address
FNDA:0,_RNvCsdHuZvB8FrmQ_15bitboard_crypto28sign_and_extract_transaction
FNDA:0,_RNvCsdHuZvB8FrmQ_15bitboard_crypto30build_and_sign_lab_transaction
FNDA:0,_RNvCsdHuZvB8FrmQ_15bitboard_crypto4init
FNDA:0,_RNvCsdHuZvB8FrmQ_15bitboard_crypto5greet
FNDA:0,_RINvCs1c8bENWoAUm_15bitboard_crypto11with_walletNCNCNvB2_11sync_wallet00INtNtCsS9DhMq3zoU_8bdk_core10spk_client18SyncRequestBuilderTNtNtCs6h80aqwLHci_10bdk_wallet5types12KeychainKindmEEEB2_
FNDA:0,_RINvCs1c8bENWoAUm_15bitboard_crypto11with_walletNCNCNvB2_16full_scan_wallet00INtNtCsS9DhMq3zoU_8bdk_core10spk_client22FullScanRequestBuilderNtNtCs6h80aqwLHci_10bdk_wallet5types12KeychainKindEEB2_
FNDA:0,_RINvCs1c8bENWoAUm_15bitboard_crypto11with_walletNCNvB2_22get_lab_change_addresss_0NtNtCs456UZznmu7y_5alloc6string6StringEB2_
FNDA:0,_RINvCs1c8bENWoAUm_15bitboard_crypto11with_walletNCNvB2_28sign_and_extract_transactions_0INtNtCs4Vq2ZLagKfv_4core6result6ResultbNtNtB2_5error11CryptoErrorEEB2_
FNDA:0,_RINvCs1c8bENWoAUm_15bitboard_crypto11with_walletNvNtB2_6wallet11get_balanceNtNtB2_5types11BalanceInfoEB2_
FNDA:0,_RINvCs1c8bENWoAUm_15bitboard_crypto11with_walletNvNtB2_6wallet19get_current_addressNtNtCs456UZznmu7y_5alloc6string6StringEB2_
FNDA:0,_RINvCs1c8bENWoAUm_15bitboard_crypto11with_walletNvNtB2_6wallet20get_transaction_listINtNtCs456UZznmu7y_5alloc3vec3VecNtNtB2_5types18TransactionDetailsEEB2_
FNDA:0,_RINvCs1c8bENWoAUm_15bitboard_crypto15with_wallet_mutNCNCNvB2_11sync_wallet0s0_0INtNtCs4Vq2ZLagKfv_4core6result6ResultuNtNtB2_5error11CryptoErrorEEB2_
FNDA:0,_RINvCs1c8bENWoAUm_15bitboard_crypto15with_wallet_mutNCNCNvB2_16full_scan_wallet0s0_0INtNtCs4Vq2ZLagKfv_4core6result6ResultuNtNtB2_5error11CryptoErrorEEB2_
FNDA:0,_RINvCs1c8bENWoAUm_15bitboard_crypto15with_wallet_mutNCNvB2_17build_transaction0INtNtCs4Vq2ZLagKfv_4core6result6ResultNtNtCsaqzHeJDk4bf_7bitcoin4psbt4PsbtNtNtB2_5error11CryptoErrorEEB2_
FNDA:0,_RINvCs1c8bENWoAUm_15bitboard_crypto15with_wallet_mutNCNvB2_30build_and_sign_lab_transactions0_0INtNtCs4Vq2ZLagKfv_4core6result6ResultNtNtB2_8lab_psbt26LabSignedTransactionResultNtNtB2_5error11CryptoErrorEEB2_
FNDA:0,_RINvCs1c8bENWoAUm_15bitboard_crypto15with_wallet_mutNvNtB2_6wallet15get_new_addressNtNtCs456UZznmu7y_5alloc6string6StringEB2_
FNDA:0,_RINvCs1c8bENWoAUm_15bitboard_crypto5to_jsINtNtCs456UZznmu7y_5alloc3vec3VecNtNtB2_5types18TransactionDetailsEEB2_
FNDA:0,_RINvCs1c8bENWoAUm_15bitboard_crypto5to_jsNtNtB2_5types10SyncResultEB2_
FNDA:0,_RNCINvCs1c8bENWoAUm_15bitboard_crypto11with_walletNCNCNvB4_11sync_wallet00INtNtCsS9DhMq3zoU_8bdk_core10spk_client18SyncRequestBuilderTNtNtCs6h80aqwLHci_10bdk_wallet5types12KeychainKindmEEE0B4_
FNDA:0,_RNCINvCs1c8bENWoAUm_15bitboard_crypto11with_walletNCNCNvB4_16full_scan_wallet00INtNtCsS9DhMq3zoU_8bdk_core10spk_client22FullScanRequestBuilderNtNtCs6h80aqwLHci_10bdk_wallet5types12KeychainKindEE0B4_
FNDA:0,_RNCINvCs1c8bENWoAUm_15bitboard_crypto11with_walletNCNvB4_22get_lab_change_addresss_0NtNtCs456UZznmu7y_5alloc6string6StringE0B4_
FNDA:0,_RNCINvCs1c8bENWoAUm_15bitboard_crypto11with_walletNCNvB4_28sign_and_extract_transactions_0INtNtCs4Vq2ZLagKfv_4core6result6ResultbNtNtB4_5error11CryptoErrorEE0B4_
FNDA:0,_RNCINvCs1c8bENWoAUm_15bitboard_crypto11with_walletNvNtB4_6wallet11get_balanceNtNtB4_5types11BalanceInfoE0B4_
FNDA:0,_RNCINvCs1c8bENWoAUm_15bitboard_crypto11with_walletNvNtB4_6wallet19get_current_addressNtNtCs456UZznmu7y_5alloc6string6StringE0B4_
FNDA:0,_RNCINvCs1c8bENWoAUm_15bitboard_crypto11with_walletNvNtB4_6wallet20get_transaction_listINtNtCs456UZznmu7y_5alloc3vec3VecNtNtB4_5types18TransactionDetailsEE0B4_
FNDA:0,_RNCINvCs1c8bENWoAUm_15bitboard_crypto15with_wallet_mutNCNCNvB4_11sync_wallet0s0_0INtNtCs4Vq2ZLagKfv_4core6result6ResultuNtNtB4_5error11CryptoErrorEE0B4_
FNDA:0,_RNCINvCs1c8bENWoAUm_15bitboard_crypto15with_wallet_mutNCNCNvB4_16full_scan_wallet0s0_0INtNtCs4Vq2ZLagKfv_4core6result6ResultuNtNtB4_5error11CryptoErrorEE0B4_
FNDA:0,_RNCINvCs1c8bENWoAUm_15bitboard_crypto15with_wallet_mutNCNvB4_17build_transaction0INtNtCs4Vq2ZLagKfv_4core6result6ResultNtNtCsaqzHeJDk4bf_7bitcoin4psbt4PsbtNtNtB4_5error11CryptoErrorEE0B4_
FNDA:0,_RNCINvCs1c8bENWoAUm_15bitboard_crypto15with_wallet_mutNCNvB4_30build_and_sign_lab_transactions0_0INtNtCs4Vq2ZLagKfv_4core6result6ResultNtNtB4_8lab_psbt26LabSignedTransactionResultNtNtB4_5error11CryptoErrorEE0B4_
FNDA:0,_RNCINvCs1c8bENWoAUm_15bitboard_crypto15with_wallet_mutNvNtB4_6wallet15get_new_addressNtNtCs456UZznmu7y_5alloc6string6StringE0B4_
FNDA:0,_RNCINvCs1c8bENWoAUm_15bitboard_crypto5to_jsINtNtCs456UZznmu7y_5alloc3vec3VecNtNtB4_5types18TransactionDetailsEE0B4_
FNDA:0,_RNCINvCs1c8bENWoAUm_15bitboard_crypto5to_jsNtNtB4_5types10SyncResultE0B4_
FNDA:0,_RNCNCINvCs1c8bENWoAUm_15bitboard_crypto11with_walletNCNCNvB6_11sync_wallet00INtNtCsS9DhMq3zoU_8bdk_core10spk_client18SyncRequestBuilderTNtNtCs6h80aqwLHci_10bdk_wallet5types12KeychainKindmEEE00B6_
FNDA:0,_RNCNCINvCs1c8bENWoAUm_15bitboard_crypto11with_walletNCNCNvB6_11sync_wallet00INtNtCsS9DhMq3zoU_8bdk_core10spk_client18SyncRequestBuilderTNtNtCs6h80aqwLHci_10bdk_wallet5types12KeychainKindmEEE0s_0B6_
FNDA:0,_RNCNCINvCs1c8bENWoAUm_15bitboard_crypto11with_walletNCNCNvB6_16full_scan_wallet00INtNtCsS9DhMq3zoU_8bdk_core10spk_client22FullScanRequestBuilderNtNtCs6h80aqwLHci_10bdk_wallet5types12KeychainKindEE00B6_
FNDA:0,_RNCNCINvCs1c8bENWoAUm_15bitboard_crypto11with_walletNCNCNvB6_16full_scan_wallet00INtNtCsS9DhMq3zoU_8bdk_core10spk_client22FullScanRequestBuilderNtNtCs6h80aqwLHci_10bdk_wallet5types12KeychainKindEE0s_0B6_
FNDA:0,_RNCNCINvCs1c8bENWoAUm_15bitboard_crypto11with_walletNCNvB6_22get_lab_change_addresss_0NtNtCs456UZznmu7y_5alloc6string6StringE00B6_
FNDA:0,_RNCNCINvCs1c8bENWoAUm_15bitboard_crypto11with_walletNCNvB6_22get_lab_change_addresss_0NtNtCs456UZznmu7y_5alloc6string6StringE0s_0B6_
FNDA:0,_RNCNCINvCs1c8bENWoAUm_15bitboard_crypto11with_walletNCNvB6_28sign_and_extract_transactions_0INtNtCs4Vq2ZLagKfv_4core6result6ResultbNtNtB6_5error11CryptoErrorEE00B6_
FNDA:0,_RNCNCINvCs1c8bENWoAUm_15bitboard_crypto11with_walletNCNvB6_28sign_and_extract_transactions_0INtNtCs4Vq2ZLagKfv_4core6result6ResultbNtNtB6_5error11CryptoErrorEE0s_0B6_
FNDA:0,_RNCNCINvCs1c8bENWoAUm_15bitboard_crypto11with_walletNvNtB6_6wallet11get_balanceNtNtB6_5types11BalanceInfoE00B6_
FNDA:0,_RNCNCINvCs1c8bENWoAUm_15bitboard_crypto11with_walletNvNtB6_6wallet11get_balanceNtNtB6_5types11BalanceInfoE0s_0B6_
FNDA:0,_RNCNCINvCs1c8bENWoAUm_15bitboard_crypto11with_walletNvNtB6_6wallet19get_current_addressNtNtCs456UZznmu7y_5alloc6string6StringE00B6_
FNDA:0,_RNCNCINvCs1c8bENWoAUm_15bitboard_crypto11with_walletNvNtB6_6wallet19get_current_addressNtNtCs456UZznmu7y_5alloc6string6StringE0s_0B6_
FNDA:0,_RNCNCINvCs1c8bENWoAUm_15bitboard_crypto11with_walletNvNtB6_6wallet20get_transaction_listINtNtCs456UZznmu7y_5alloc3vec3VecNtNtB6_5types18TransactionDetailsEE00B6_
FNDA:0,_RNCNCINvCs1c8bENWoAUm_15bitboard_crypto11with_walletNvNtB6_6wallet20get_transaction_listINtNtCs456UZznmu7y_5alloc3vec3VecNtNtB6_5types18TransactionDetailsEE0s_0B6_
FNDA:0,_RNCNCINvCs1c8bENWoAUm_15bitboard_crypto15with_wallet_mutNCNCNvB6_11sync_wallet0s0_0INtNtCs4Vq2ZLagKfv_4core6result6ResultuNtNtB6_5error11CryptoErrorEE00B6_
FNDA:0,_RNCNCINvCs1c8bENWoAUm_15bitboard_crypto15with_wallet_mutNCNCNvB6_11sync_wallet0s0_0INtNtCs4Vq2ZLagKfv_4core6result6ResultuNtNtB6_5error11CryptoErrorEE0s_0B6_
FNDA:0,_RNCNCINvCs1c8bENWoAUm_15bitboard_crypto15with_wallet_mutNCNCNvB6_16full_scan_wallet0s0_0INtNtCs4Vq2ZLagKfv_4core6result6ResultuNtNtB6_5error11CryptoErrorEE00B6_
FNDA:0,_RNCNCINvCs1c8bENWoAUm_15bitboard_crypto15with_wallet_mutNCNCNvB6_16full_scan_wallet0s0_0INtNtCs4Vq2ZLagKfv_4core6result6ResultuNtNtB6_5error11CryptoErrorEE0s_0B6_
FNDA:0,_RNCNCINvCs1c8bENWoAUm_15bitboard_crypto15with_wallet_mutNCNvB6_17build_transaction0INtNtCs4Vq2ZLagKfv_4core6result6ResultNtNtCsaqzHeJDk4bf_7bitcoin4psbt4PsbtNtNtB6_5error11CryptoErrorEE00B6_
FNDA:0,_RNCNCINvCs1c8bENWoAUm_15bitboard_crypto15with_wallet_mutNCNvB6_17build_transaction0INtNtCs4Vq2ZLagKfv_4core6result6ResultNtNtCsaqzHeJDk4bf_7bitcoin4psbt4PsbtNtNtB6_5error11CryptoErrorEE0s_0B6_
FNDA:0,_RNCNCINvCs1c8bENWoAUm_15bitboard_crypto15with_wallet_mutNCNvB6_30build_and_sign_lab_transactions0_0INtNtCs4Vq2ZLagKfv_4core6result6ResultNtNtB6_8lab_psbt26LabSignedTransactionResultNtNtB6_5error11CryptoErrorEE00B6_
FNDA:0,_RNCNCINvCs1c8bENWoAUm_15bitboard_crypto15with_wallet_mutNCNvB6_30build_and_sign_lab_transactions0_0INtNtCs4Vq2ZLagKfv_4core6result6ResultNtNtB6_8lab_psbt26LabSignedTransactionResultNtNtB6_5error11CryptoErrorEE0s_0B6_
FNDA:0,_RNCNCINvCs1c8bENWoAUm_15bitboard_crypto15with_wallet_mutNvNtB6_6wallet15get_new_addressNtNtCs456UZznmu7y_5alloc6string6StringE00B6_
FNDA:0,_RNCNCINvCs1c8bENWoAUm_15bitboard_crypto15with_wallet_mutNvNtB6_6wallet15get_new_addressNtNtCs456UZznmu7y_5alloc6string6StringE0s_0B6_
FNDA:0,_RNCNCNCNvCs1c8bENWoAUm_15bitboard_crypto11sync_wallet0s0_00B7_
FNDA:0,_RNCNCNCNvCs1c8bENWoAUm_15bitboard_crypto16full_scan_wallet0s0_00B7_
FNDA:0,_RNCNCNvCs1c8bENWoAUm_15bitboard_crypto11sync_wallet00B5_
FNDA:0,_RNCNCNvCs1c8bENWoAUm_15bitboard_crypto11sync_wallet0s0_0B5_
FNDA:0,_RNCNCNvCs1c8bENWoAUm_15bitboard_crypto11sync_wallet0s_0B5_
FNDA:0,_RNCNCNvCs1c8bENWoAUm_15bitboard_crypto16full_scan_wallet00B5_
FNDA:0,_RNCNCNvCs1c8bENWoAUm_15bitboard_crypto16full_scan_wallet0s0_0B5_
FNDA:0,_RNCNCNvCs1c8bENWoAUm_15bitboard_crypto16full_scan_wallet0s_0B5_
FNDA:0,_RNCNCNvCs1c8bENWoAUm_15bitboard_crypto21broadcast_transaction00B5_
FNDA:0,_RNCNCNvCs1c8bENWoAUm_15bitboard_crypto25accumulate_staged_changes00B5_
FNDA:0,_RNCNvCs1c8bENWoAUm_15bitboard_crypto11load_wallet0B3_
FNDA:0,_RNCNvCs1c8bENWoAUm_15bitboard_crypto11load_wallets0_0B3_
FNDA:0,_RNCNvCs1c8bENWoAUm_15bitboard_crypto11load_wallets1_0B3_
FNDA:0,_RNCNvCs1c8bENWoAUm_15bitboard_crypto11load_wallets_0B3_
FNDA:0,_RNCNvCs1c8bENWoAUm_15bitboard_crypto11sync_wallet0B3_
FNDA:0,_RNCNvCs1c8bENWoAUm_15bitboard_crypto13create_wallet0B3_
FNDA:0,_RNCNvCs1c8bENWoAUm_15bitboard_crypto13create_wallets0_0B3_
FNDA:0,_RNCNvCs1c8bENWoAUm_15bitboard_crypto13create_wallets1_0B3_
FNDA:0,_RNCNvCs1c8bENWoAUm_15bitboard_crypto13create_wallets2_0B3_
FNDA:0,_RNCNvCs1c8bENWoAUm_15bitboard_crypto13create_wallets_0B3_
FNDA:0,_RNCNvCs1c8bENWoAUm_15bitboard_crypto16export_changeset0B3_
FNDA:0,_RNCNvCs1c8bENWoAUm_15bitboard_crypto16full_scan_wallet0B3_
FNDA:0,_RNCNvCs1c8bENWoAUm_15bitboard_crypto17build_transaction0B3_
FNDA:0,_RNCNvCs1c8bENWoAUm_15bitboard_crypto17derive_argon2_key0B3_
FNDA:0,_RNCNvCs1c8bENWoAUm_15bitboard_crypto17derive_argon2_keys_0B3_
FNDA:0,_RNCNvCs1c8bENWoAUm_15bitboard_crypto18derive_descriptors0B3_
FNDA:0,_RNCNvCs1c8bENWoAUm_15bitboard_crypto21broadcast_transaction0B3_
FNDA:0,_RNCNvCs1c8bENWoAUm_15bitboard_crypto22get_lab_change_address0B3_
FNDA:0,_RNCNvCs1c8bENWoAUm_15bitboard_crypto22get_lab_change_addresss_0B3_
FNDA:0,_RNCNvCs1c8bENWoAUm_15bitboard_crypto25accumulate_staged_changes0B3_
FNDA:0,_RNCNvCs1c8bENWoAUm_15bitboard_crypto28sign_and_extract_transaction0B3_
FNDA:0,_RNCNvCs1c8bENWoAUm_15bitboard_crypto28sign_and_extract_transactions_0B3_
FNDA:0,_RNCNvCs1c8bENWoAUm_15bitboard_crypto30build_and_sign_lab_transaction0B3_
FNDA:0,_RNCNvCs1c8bENWoAUm_15bitboard_crypto30build_and_sign_lab_transactions0_0B3_
FNDA:0,_RNCNvCs1c8bENWoAUm_15bitboard_crypto30build_and_sign_lab_transactions1_0B3_
FNDA:0,_RNCNvCs1c8bENWoAUm_15bitboard_crypto30build_and_sign_lab_transactions_0B3_
FNDA:0,_RNvCs1c8bENWoAUm_15bitboard_crypto11get_balance
FNDA:0,_RNvCs1c8bENWoAUm_15bitboard_crypto11load_wallet
FNDA:0,_RNvCs1c8bENWoAUm_15bitboard_crypto11sync_wallet
FNDA:0,_RNvCs1c8bENWoAUm_15bitboard_crypto13create_wallet
FNDA:0,_RNvCs1c8bENWoAUm_15bitboard_crypto15get_new_address
FNDA:0,_RNvCs1c8bENWoAUm_15bitboard_crypto16export_changeset
FNDA:0,_RNvCs1c8bENWoAUm_15bitboard_crypto16full_scan_wallet
FNDA:0,_RNvCs1c8bENWoAUm_15bitboard_crypto16unix_seconds_now
FNDA:0,_RNvCs1c8bENWoAUm_15bitboard_crypto17build_sync_result
FNDA:0,_RNvCs1c8bENWoAUm_15bitboard_crypto17build_transaction
FNDA:0,_RNvCs1c8bENWoAUm_15bitboard_crypto17derive_argon2_key
FNDA:0,_RNvCs1c8bENWoAUm_15bitboard_crypto17generate_mnemonic
FNDA:0,_RNvCs1c8bENWoAUm_15bitboard_crypto17validate_mnemonic
FNDA:0,_RNvCs1c8bENWoAUm_15bitboard_crypto18derive_descriptors
FNDA:0,_RNvCs1c8bENWoAUm_15bitboard_crypto19get_current_address
FNDA:0,_RNvCs1c8bENWoAUm_15bitboard_crypto20get_transaction_list
FNDA:0,_RNvCs1c8bENWoAUm_15bitboard_crypto21broadcast_transaction
FNDA:0,_RNvCs1c8bENWoAUm_15bitboard_crypto22get_lab_change_address
FNDA:0,_RNvCs1c8bENWoAUm_15bitboard_crypto25accumulate_staged_changes
FNDA:0,_RNvCs1c8bENWoAUm_15bitboard_crypto28sign_and_extract_transaction
FNDA:0,_RNvCs1c8bENWoAUm_15bitboard_crypto30build_and_sign_lab_transaction
FNDA:0,_RNvCs1c8bENWoAUm_15bitboard_crypto4init
FNDA:0,_RNvCs1c8bENWoAUm_15bitboard_crypto5greet
FNF:69
FNH:1
DA:12,0
DA:13,0
DA:14,0
DA:33,0
DA:34,0
DA:35,0
DA:44,0
DA:45,0
DA:46,0
DA:48,0
DA:49,0
DA:50,0
DA:51,0
DA:52,0
DA:53,0
DA:54,0
DA:55,0
DA:56,0
DA:57,0
DA:59,0
DA:60,0
DA:61,0
DA:63,0
DA:64,0
DA:65,0
DA:66,0
DA:67,0
DA:68,0
DA:69,0
DA:70,0
DA:71,0
DA:72,0
DA:75,0
DA:76,0
DA:77,0
DA:78,0
DA:79,0
DA:81,0
DA:82,0
DA:83,0
DA:84,0
DA:85,0
DA:86,0
DA:93,0
DA:94,0
DA:95,0
DA:98,0
DA:99,0
DA:100,0
DA:103,0
DA:104,0
DA:105,0
DA:106,0
DA:108,0
DA:111,0
DA:112,0
DA:113,0
DA:114,0
DA:115,0
DA:116,0
DA:117,0
DA:118,0
DA:120,0
DA:121,0
DA:123,0
DA:124,0
DA:135,0
DA:136,0
DA:137,0
DA:138,0
DA:139,0
DA:140,0
DA:141,0
DA:142,0
DA:144,0
DA:145,0
DA:147,0
DA:148,0
DA:150,0
DA:152,0
DA:154,0
DA:156,0
DA:157,0
DA:158,0
DA:159,0
DA:161,0
DA:162,0
DA:163,0
DA:164,0
DA:165,0
DA:166,0
DA:168,0
DA:169,0
DA:173,0
DA:174,0
DA:175,0
DA:176,0
DA:177,0
DA:178,0
DA:179,0
DA:180,0
DA:182,0
DA:183,0
DA:185,0
DA:186,0
DA:188,0
DA:189,0
DA:190,0
DA:191,0
DA:193,0
DA:194,0
DA:198,0
DA:199,0
DA:200,0
DA:201,0
DA:202,0
DA:206,0
DA:207,0
DA:208,0
DA:212,0
DA:213,0
DA:214,0
DA:215,0
DA:222,0
DA:223,0
DA:224,0
DA:225,0
DA:226,0
DA:234,0
DA:235,0
DA:236,0
DA:242,0
DA:243,0
DA:245,0
DA:248,0
DA:249,0
DA:250,0
DA:251,0
DA:252,0
DA:253,0
DA:255,0
DA:256,0
DA:257,0
DA:258,0
DA:259,0
DA:261,0
DA:262,0
DA:263,0
DA:270,0
DA:271,0
DA:273,0
DA:276,0
DA:277,0
DA:278,0
DA:279,0
DA:280,0
DA:281,0
DA:283,0
DA:284,0
DA:285,0
DA:286,0
DA:287,0
DA:289,0
DA:290,0
DA:291,0
DA:293,0
DA:294,0
DA:295,0
DA:296,0
DA:297,0
DA:298,0
DA:299,0
DA:300,0
DA:301,0
DA:307,0
DA:308,0
DA:309,0
DA:310,0
DA:311,0
DA:312,0
DA:313,0
DA:314,0
DA:315,0
DA:316,0
DA:317,0
DA:318,0
DA:319,0
DA:320,0
DA:322,0
DA:323,0
DA:325,0
DA:326,0
DA:327,0
DA:333,0
DA:334,0
DA:335,0
DA:336,0
DA:338,0
DA:340,0
DA:341,0
DA:342,0
DA:348,0
DA:349,0
DA:350,0
DA:352,0
DA:355,0
DA:357,0
DA:358,0
DA:362,0
DA:363,0
DA:364,0
DA:365,0
DA:374,0
DA:375,0
DA:376,0
DA:377,0
DA:378,0
DA:379,0
DA:380,0
DA:381,0
DA:382,0
DA:383,0
DA:384,0
DA:385,0
DA:386,0
DA:387,0
DA:389,0
DA:390,0
DA:391,0
DA:392,0
DA:393,0
DA:394,0
DA:395,0
DA:396,0
DA:398,0
DA:399,0
DA:401,0
DA:402,0
DA:403,0
DA:404,0
DA:405,0
DA:407,0
DA:408,0
DA:412,0
DA:413,0
DA:414,0
DA:415,0
DA:416,0
DA:417,0
DA:418,0
DA:419,0
DA:420,0
DA:421,0
DA:422,0
DA:423,0
DA:424,0
DA:433,10
DA:434,10
DA:435,10
DA:436,10
DA:437,10
DA:438,10
DA:439,10
DA:440,10
DA:441,10
DA:442,10
BRF:0
BRH:0
LF:317
LH:10
end_of_record
SF:/home/radivis/projects/bitboard-pwa-wallet/crypto/src/mnemonic.rs
FN:24,_RNCNvNtCsdHuZvB8FrmQ_15bitboard_crypto8mnemonic17generate_mnemonic0B5_
FN:35,_RNCNvNtCsdHuZvB8FrmQ_15bitboard_crypto8mnemonic17validate_mnemonic0B5_
FN:11,_RNvNtCsdHuZvB8FrmQ_15bitboard_crypto8mnemonic17generate_mnemonic
FN:33,_RNvNtCsdHuZvB8FrmQ_15bitboard_crypto8mnemonic17validate_mnemonic
FN:11,_RNvNtCs1c8bENWoAUm_15bitboard_crypto8mnemonic17generate_mnemonic
FN:33,_RNvNtCs1c8bENWoAUm_15bitboard_crypto8mnemonic17validate_mnemonic
FN:24,_RNCNvNtCs1c8bENWoAUm_15bitboard_crypto8mnemonic17generate_mnemonic0B5_
FN:35,_RNCNvNtCs1c8bENWoAUm_15bitboard_crypto8mnemonic17validate_mnemonic0B5_
FNDA:0,_RNCNvNtCsdHuZvB8FrmQ_15bitboard_crypto8mnemonic17generate_mnemonic0B5_
FNDA:0,_RNCNvNtCsdHuZvB8FrmQ_15bitboard_crypto8mnemonic17validate_mnemonic0B5_
FNDA:0,_RNvNtCsdHuZvB8FrmQ_15bitboard_crypto8mnemonic17generate_mnemonic
FNDA:0,_RNvNtCsdHuZvB8FrmQ_15bitboard_crypto8mnemonic17validate_mnemonic
FNDA:12,_RNvNtCs1c8bENWoAUm_15bitboard_crypto8mnemonic17generate_mnemonic
FNDA:9,_RNvNtCs1c8bENWoAUm_15bitboard_crypto8mnemonic17validate_mnemonic
FNDA:0,_RNCNvNtCs1c8bENWoAUm_15bitboard_crypto8mnemonic17generate_mnemonic0B5_
FNDA:4,_RNCNvNtCs1c8bENWoAUm_15bitboard_crypto8mnemonic17validate_mnemonic0B5_
FNF:4
FNH:3
DA:11,12
DA:12,12
DA:13,4
DA:14,3
DA:16,5
DA:17,5
DA:18,5
DA:19,5
DA:23,7
DA:24,7
DA:26,7
DA:27,12
DA:33,9
DA:34,9
DA:35,9
DA:36,5
DA:37,9
BRF:0
BRH:0
LF:19
LH:18
end_of_record
SF:/home/radivis/projects/bitboard-pwa-wallet/crypto/src/sync.rs
FN:6,_RNvNtCsdHuZvB8FrmQ_15bitboard_crypto4sync11sync_wallet
FN:16,_RNvNtCsdHuZvB8FrmQ_15bitboard_crypto4sync16full_scan_wallet
FN:10,_RNCNvNtCsdHuZvB8FrmQ_15bitboard_crypto4sync11sync_wallet0B5_
FN:21,_RNCNvNtCsdHuZvB8FrmQ_15bitboard_crypto4sync16full_scan_wallet0B5_
FN:6,_RNvNtCs1c8bENWoAUm_15bitboard_crypto4sync11sync_wallet
FN:16,_RNvNtCs1c8bENWoAUm_15bitboard_crypto4sync16full_scan_wallet
FN:10,_RNCNvNtCs1c8bENWoAUm_15bitboard_crypto4sync11sync_wallet0B5_
FN:21,_RNCNvNtCs1c8bENWoAUm_15bitboard_crypto4sync16full_scan_wallet0B5_
FNDA:0,_RNvNtCsdHuZvB8FrmQ_15bitboard_crypto4sync11sync_wallet
FNDA:0,_RNvNtCsdHuZvB8FrmQ_15bitboard_crypto4sync16full_scan_wallet
FNDA:0,_RNCNvNtCsdHuZvB8FrmQ_15bitboard_crypto4sync11sync_wallet0B5_
FNDA:0,_RNCNvNtCsdHuZvB8FrmQ_15bitboard_crypto4sync16full_scan_wallet0B5_
FNDA:2,_RNvNtCs1c8bENWoAUm_15bitboard_crypto4sync11sync_wallet
FNDA:2,_RNvNtCs1c8bENWoAUm_15bitboard_crypto4sync16full_scan_wallet
FNDA:2,_RNCNvNtCs1c8bENWoAUm_15bitboard_crypto4sync11sync_wallet0B5_
FNDA:2,_RNCNvNtCs1c8bENWoAUm_15bitboard_crypto4sync16full_scan_wallet0B5_
FNF:4
FNH:4
DA:6,2
DA:7,2
DA:8,2
DA:9,2
DA:10,2
DA:11,2
DA:12,1
DA:13,1
DA:14,2
DA:16,2
DA:17,2
DA:18,2
DA:19,2
DA:20,2
DA:21,2
DA:22,2
DA:23,2
DA:24,2
DA:25,1
DA:26,1
DA:27,2
BRF:0
BRH:0
LF:23
LH:23
end_of_record
SF:/home/radivis/projects/bitboard-pwa-wallet/crypto/src/tests.rs
FN:125,_RNvNtCsdHuZvB8FrmQ_15bitboard_crypto5testss_31test_argon2_long_password_works
FN:99,_RNvNtCsdHuZvB8FrmQ_15bitboard_crypto5testss_32test_argon2_empty_password_works
FN:112,_RNvNtCsdHuZvB8FrmQ_15bitboard_crypto5testss_34test_argon2_unicode_password_works
FN:77,_RNvNtCsdHuZvB8FrmQ_15bitboard_crypto5testss_38test_argon2_params_match_specification
FN:14,_RNvNtCsdHuZvB8FrmQ_15bitboard_crypto5testss_40test_argon2_same_inputs_produce_same_key
FN:4,_RNvNtCsdHuZvB8FrmQ_15bitboard_crypto5testss_44test_argon2_key_derivation_produces_32_bytes
FN:41,_RNvNtCsdHuZvB8FrmQ_15bitboard_crypto5testss_50test_argon2_different_salts_produce_different_keys
FN:28,_RNvNtCsdHuZvB8FrmQ_15bitboard_crypto5testss_54test_argon2_different_passwords_produce_different_keys
FN:168,_RNvNtNtCsdHuZvB8FrmQ_15bitboard_crypto5tests11error_testss_43crypto_error_variants_include_inner_message
FN:140,_RNvNtNtCsdHuZvB8FrmQ_15bitboard_crypto5tests11error_testss_45crypto_error_variants_display_expected_prefix
FN:175,_RNvNtNtCsdHuZvB8FrmQ_15bitboard_crypto5tests11error_testss_51crypto_error_from_serde_json_produces_serialization
FNDA:1,_RNvNtCsdHuZvB8FrmQ_15bitboard_crypto5testss_31test_argon2_long_password_works
FNDA:1,_RNvNtCsdHuZvB8FrmQ_15bitboard_crypto5testss_32test_argon2_empty_password_works
FNDA:1,_RNvNtCsdHuZvB8FrmQ_15bitboard_crypto5testss_34test_argon2_unicode_password_works
FNDA:1,_RNvNtCsdHuZvB8FrmQ_15bitboard_crypto5testss_38test_argon2_params_match_specification
FNDA:1,_RNvNtCsdHuZvB8FrmQ_15bitboard_crypto5testss_40test_argon2_same_inputs_produce_same_key
FNDA:1,_RNvNtCsdHuZvB8FrmQ_15bitboard_crypto5testss_44test_argon2_key_derivation_produces_32_bytes
FNDA:1,_RNvNtCsdHuZvB8FrmQ_15bitboard_crypto5testss_50test_argon2_different_salts_produce_different_keys
FNDA:1,_RNvNtCsdHuZvB8FrmQ_15bitboard_crypto5testss_54test_argon2_different_passwords_produce_different_keys
FNDA:1,_RNvNtNtCsdHuZvB8FrmQ_15bitboard_crypto5tests11error_testss_43crypto_error_variants_include_inner_message
FNDA:1,_RNvNtNtCsdHuZvB8FrmQ_15bitboard_crypto5tests11error_testss_45crypto_error_variants_display_expected_prefix
FNDA:1,_RNvNtNtCsdHuZvB8FrmQ_15bitboard_crypto5tests11error_testss_51crypto_error_from_serde_json_produces_serialization
FNF:11
FNH:11
DA:4,1
DA:5,1
DA:6,1
DA:8,1
DA:10,1
DA:11,1
DA:14,1
DA:15,1
DA:16,1
DA:18,1
DA:19,1
DA:21,1
DA:23,0
DA:25,1
DA:28,1
DA:29,1
DA:31,1
DA:32,1
DA:34,1
DA:36,0
DA:38,1
DA:41,1
DA:42,1
DA:44,1
DA:45,1
DA:47,1
DA:48,1
DA:77,1
DA:79,1
DA:80,1
DA:82,1
DA:83,1
DA:84,1
DA:86,1
DA:87,1
DA:88,1
DA:95,1
DA:96,1
DA:99,1
DA:100,1
DA:101,1
DA:103,1
DA:105,1
DA:106,1
DA:107,0
DA:109,1
DA:112,1
DA:113,1
DA:114,1
DA:116,1
DA:118,1
DA:119,1
DA:120,0
DA:122,1
DA:125,1
DA:126,1
DA:127,1
DA:129,1
DA:131,1
DA:132,1
DA:140,1
DA:141,1
DA:142,1
DA:143,0
DA:145,1
DA:146,1
DA:147,0
DA:149,1
DA:150,1
DA:151,0
DA:153,1
DA:154,1
DA:155,0
DA:157,1
DA:158,1
DA:159,0
DA:161,1
DA:162,1
DA:163,0
DA:165,1
DA:168,1
DA:169,1
DA:170,1
DA:171,1
DA:172,1
DA:175,1
DA:176,1
DA:177,1
DA:178,1
DA:179,1
DA:180,1
DA:181,0
DA:184,1
BRF:0
BRH:0
LF:93
LH:82
end_of_record
SF:/home/radivis/projects/bitboard-pwa-wallet/crypto/src/transaction.rs
FN:23,_RNCNvNtCsdHuZvB8FrmQ_15bitboard_crypto11transaction17build_transaction0B5_
FN:46,_RNCNvNtCsdHuZvB8FrmQ_15bitboard_crypto11transaction19extract_transaction0B5_
FN:38,_RNvNtCsdHuZvB8FrmQ_15bitboard_crypto11transaction16sign_transaction
FN:8,_RNvNtCsdHuZvB8FrmQ_15bitboard_crypto11transaction17build_transaction
FN:44,_RNvNtCsdHuZvB8FrmQ_15bitboard_crypto11transaction19extract_transaction
FN:38,_RNvNtCs1c8bENWoAUm_15bitboard_crypto11transaction16sign_transaction
FN:8,_RNvNtCs1c8bENWoAUm_15bitboard_crypto11transaction17build_transaction
FN:44,_RNvNtCs1c8bENWoAUm_15bitboard_crypto11transaction19extract_transaction
FN:23,_RNCNvNtCs1c8bENWoAUm_15bitboard_crypto11transaction17build_transaction0B5_
FN:46,_RNCNvNtCs1c8bENWoAUm_15bitboard_crypto11transaction19extract_transaction0B5_
FNDA:0,_RNCNvNtCsdHuZvB8FrmQ_15bitboard_crypto11transaction17build_transaction0B5_
FNDA:0,_RNCNvNtCsdHuZvB8FrmQ_15bitboard_crypto11transaction19extract_transaction0B5_
FNDA:0,_RNvNtCsdHuZvB8FrmQ_15bitboard_crypto11transaction16sign_transaction
FNDA:0,_RNvNtCsdHuZvB8FrmQ_15bitboard_crypto11transaction17build_transaction
FNDA:0,_RNvNtCsdHuZvB8FrmQ_15bitboard_crypto11transaction19extract_transaction
FNDA:4,_RNvNtCs1c8bENWoAUm_15bitboard_crypto11transaction16sign_transaction
FNDA:9,_RNvNtCs1c8bENWoAUm_15bitboard_crypto11transaction17build_transaction
FNDA:3,_RNvNtCs1c8bENWoAUm_15bitboard_crypto11transaction19extract_transaction
FNDA:0,_RNCNvNtCs1c8bENWoAUm_15bitboard_crypto11transaction17build_transaction0B5_
FNDA:0,_RNCNvNtCs1c8bENWoAUm_15bitboard_crypto11transaction19extract_transaction0B5_
FNF:5
FNH:3
DA:8,9
DA:9,9
DA:10,9
DA:11,9
DA:12,9
DA:13,9
DA:14,9
DA:15,9
DA:16,1
DA:17,1
DA:18,1
DA:19,8
DA:21,8
DA:22,7
DA:23,7
DA:25,7
DA:26,7
DA:28,7
DA:29,7
DA:30,7
DA:31,7
DA:32,7
DA:34,6
DA:35,9
DA:38,4
DA:40,4
DA:41,4
DA:42,4
DA:44,3
DA:45,3
DA:46,3
DA:47,3
BRF:0
BRH:0
LF:34
LH:32
end_of_record
SF:/home/radivis/projects/bitboard-pwa-wallet/crypto/src/types.rs
FN:16,_RNvXNtCsdHuZvB8FrmQ_15bitboard_crypto5typesNtB2_11AddressTypeINtNtCs4Vq2ZLagKfv_4core7convert7TryFromReE8try_from
FN:49,_RNvXs0_NtCsdHuZvB8FrmQ_15bitboard_crypto5typesNtB5_14BitcoinNetworkINtNtCs4Vq2ZLagKfv_4core7convert4FromNtNtCsaqzHeJDk4bf_7bitcoin7network7NetworkE4from
FN:63,_RNvXs1_NtCsdHuZvB8FrmQ_15bitboard_crypto5typesNtB5_14BitcoinNetworkINtNtCs4Vq2ZLagKfv_4core7convert7TryFromReE8try_from
FN:38,_RNvXs_NtCsdHuZvB8FrmQ_15bitboard_crypto5typesNtNtCsaqzHeJDk4bf_7bitcoin7network7NetworkINtNtCs4Vq2ZLagKfv_4core7convert4FromNtB4_14BitcoinNetworkE4from
FN:16,_RNvXNtCs1c8bENWoAUm_15bitboard_crypto5typesNtB2_11AddressTypeINtNtCs4Vq2ZLagKfv_4core7convert7TryFromReE8try_from
FN:49,_RNvXs0_NtCs1c8bENWoAUm_15bitboard_crypto5typesNtB5_14BitcoinNetworkINtNtCs4Vq2ZLagKfv_4core7convert4FromNtNtCsaqzHeJDk4bf_7bitcoin7network7NetworkE4from
FN:63,_RNvXs1_NtCs1c8bENWoAUm_15bitboard_crypto5typesNtB5_14BitcoinNetworkINtNtCs4Vq2ZLagKfv_4core7convert7TryFromReE8try_from
FN:38,_RNvXs_NtCs1c8bENWoAUm_15bitboard_crypto5typesNtNtCsaqzHeJDk4bf_7bitcoin7network7NetworkINtNtCs4Vq2ZLagKfv_4core7convert4FromNtB4_14BitcoinNetworkE4from
FNDA:0,_RNvXNtCsdHuZvB8FrmQ_15bitboard_crypto5typesNtB2_11AddressTypeINtNtCs4Vq2ZLagKfv_4core7convert7TryFromReE8try_from
FNDA:0,_RNvXs0_NtCsdHuZvB8FrmQ_15bitboard_crypto5typesNtB5_14BitcoinNetworkINtNtCs4Vq2ZLagKfv_4core7convert4FromNtNtCsaqzHeJDk4bf_7bitcoin7network7NetworkE4from
FNDA:0,_RNvXs1_NtCsdHuZvB8FrmQ_15bitboard_crypto5typesNtB5_14BitcoinNetworkINtNtCs4Vq2ZLagKfv_4core7convert7TryFromReE8try_from
FNDA:0,_RNvXs_NtCsdHuZvB8FrmQ_15bitboard_crypto5typesNtNtCsaqzHeJDk4bf_7bitcoin7network7NetworkINtNtCs4Vq2ZLagKfv_4core7convert4FromNtB4_14BitcoinNetworkE4from
FNDA:0,_RNvXNtCs1c8bENWoAUm_15bitboard_crypto5typesNtB2_11AddressTypeINtNtCs4Vq2ZLagKfv_4core7convert7TryFromReE8try_from
FNDA:0,_RNvXs0_NtCs1c8bENWoAUm_15bitboard_crypto5typesNtB5_14BitcoinNetworkINtNtCs4Vq2ZLagKfv_4core7convert4FromNtNtCsaqzHeJDk4bf_7bitcoin7network7NetworkE4from
FNDA:0,_RNvXs1_NtCs1c8bENWoAUm_15bitboard_crypto5typesNtB5_14BitcoinNetworkINtNtCs4Vq2ZLagKfv_4core7convert7TryFromReE8try_from
FNDA:85,_RNvXs_NtCs1c8bENWoAUm_15bitboard_crypto5typesNtNtCsaqzHeJDk4bf_7bitcoin7network7NetworkINtNtCs4Vq2ZLagKfv_4core7convert4FromNtB4_14BitcoinNetworkE4from
FNF:4
FNH:1
DA:16,0
DA:17,0
DA:18,0
DA:19,0
DA:20,0
DA:21,0
DA:22,0
DA:23,0
DA:25,0
DA:38,85
DA:39,85
DA:40,4
DA:41,55
DA:42,23
DA:43,3
DA:45,85
DA:49,0
DA:50,0
DA:51,0
DA:52,0
DA:53,0
DA:54,0
DA:55,0
DA:57,0
DA:63,0
DA:64,0
DA:65,0
DA:66,0
DA:67,0
DA:68,0
DA:69,0
DA:70,0
DA:71,0
DA:72,0
DA:74,0
BRF:0
BRH:0
LF:35
LH:7
end_of_record
SF:/home/radivis/projects/bitboard-pwa-wallet/crypto/src/wallet.rs
FN:65,_RNvNtCsdHuZvB8FrmQ_15bitboard_crypto6wallet11get_balance
FN:77,_RNvNtCsdHuZvB8FrmQ_15bitboard_crypto6wallet19serialize_changeset
FN:110,_RNCNCNvNtCsdHuZvB8FrmQ_15bitboard_crypto6wallet20get_transaction_list00B7_
FN:42,_RNCNvNtCsdHuZvB8FrmQ_15bitboard_crypto6wallet11load_wallet0B5_
FN:43,_RNCNvNtCsdHuZvB8FrmQ_15bitboard_crypto6wallet11load_wallets_0B5_
FN:21,_RNCNvNtCsdHuZvB8FrmQ_15bitboard_crypto6wallet13create_wallet0B5_
FN:90,_RNCNvNtCsdHuZvB8FrmQ_15bitboard_crypto6wallet20get_transaction_list0B5_
FN:28,_RNvNtCsdHuZvB8FrmQ_15bitboard_crypto6wallet11load_wallet
FN:11,_RNvNtCsdHuZvB8FrmQ_15bitboard_crypto6wallet13create_wallet
FN:47,_RNvNtCsdHuZvB8FrmQ_15bitboard_crypto6wallet15get_new_address
FN:56,_RNvNtCsdHuZvB8FrmQ_15bitboard_crypto6wallet19get_current_address
FN:87,_RNvNtCsdHuZvB8FrmQ_15bitboard_crypto6wallet20get_transaction_list
FN:82,_RNvNtCsdHuZvB8FrmQ_15bitboard_crypto6wallet21deserialize_changeset
FN:65,_RNvNtCs1c8bENWoAUm_15bitboard_crypto6wallet11get_balance
FN:28,_RNvNtCs1c8bENWoAUm_15bitboard_crypto6wallet11load_wallet
FN:11,_RNvNtCs1c8bENWoAUm_15bitboard_crypto6wallet13create_wallet
FN:47,_RNvNtCs1c8bENWoAUm_15bitboard_crypto6wallet15get_new_address
FN:56,_RNvNtCs1c8bENWoAUm_15bitboard_crypto6wallet19get_current_address
FN:77,_RNvNtCs1c8bENWoAUm_15bitboard_crypto6wallet19serialize_changeset
FN:87,_RNvNtCs1c8bENWoAUm_15bitboard_crypto6wallet20get_transaction_list
FN:82,_RNvNtCs1c8bENWoAUm_15bitboard_crypto6wallet21deserialize_changeset
FN:110,_RNCNCNvNtCs1c8bENWoAUm_15bitboard_crypto6wallet20get_transaction_list00B7_
FN:42,_RNCNvNtCs1c8bENWoAUm_15bitboard_crypto6wallet11load_wallet0B5_
FN:43,_RNCNvNtCs1c8bENWoAUm_15bitboard_crypto6wallet11load_wallets_0B5_
FN:21,_RNCNvNtCs1c8bENWoAUm_15bitboard_crypto6wallet13create_wallet0B5_
FN:90,_RNCNvNtCs1c8bENWoAUm_15bitboard_crypto6wallet20get_transaction_list0B5_
FNDA:0,_RNvNtCsdHuZvB8FrmQ_15bitboard_crypto6wallet11get_balance
FNDA:0,_RNvNtCsdHuZvB8FrmQ_15bitboard_crypto6wallet19serialize_changeset
FNDA:0,_RNCNCNvNtCsdHuZvB8FrmQ_15bitboard_crypto6wallet20get_transaction_list00B7_
FNDA:0,_RNCNvNtCsdHuZvB8FrmQ_15bitboard_crypto6wallet11load_wallet0B5_
FNDA:0,_RNCNvNtCsdHuZvB8FrmQ_15bitboard_crypto6wallet11load_wallets_0B5_
FNDA:0,_RNCNvNtCsdHuZvB8FrmQ_15bitboard_crypto6wallet13create_wallet0B5_
FNDA:0,_RNCNvNtCsdHuZvB8FrmQ_15bitboard_crypto6wallet20get_transaction_list0B5_
FNDA:0,_RNvNtCsdHuZvB8FrmQ_15bitboard_crypto6wallet11load_wallet
FNDA:0,_RNvNtCsdHuZvB8FrmQ_15bitboard_crypto6wallet13create_wallet
FNDA:0,_RNvNtCsdHuZvB8FrmQ_15bitboard_crypto6wallet15get_new_address
FNDA:0,_RNvNtCsdHuZvB8FrmQ_15bitboard_crypto6wallet19get_current_address
FNDA:0,_RNvNtCsdHuZvB8FrmQ_15bitboard_crypto6wallet20get_transaction_list
FNDA:0,_RNvNtCsdHuZvB8FrmQ_15bitboard_crypto6wallet21deserialize_changeset
FNDA:1,_RNvNtCs1c8bENWoAUm_15bitboard_crypto6wallet11get_balance
FNDA:2,_RNvNtCs1c8bENWoAUm_15bitboard_crypto6wallet11load_wallet
FNDA:30,_RNvNtCs1c8bENWoAUm_15bitboard_crypto6wallet13create_wallet
FNDA:15,_RNvNtCs1c8bENWoAUm_15bitboard_crypto6wallet15get_new_address
FNDA:2,_RNvNtCs1c8bENWoAUm_15bitboard_crypto6wallet19get_current_address
FNDA:3,_RNvNtCs1c8bENWoAUm_15bitboard_crypto6wallet19serialize_changeset
FNDA:2,_RNvNtCs1c8bENWoAUm_15bitboard_crypto6wallet20get_transaction_list
FNDA:3,_RNvNtCs1c8bENWoAUm_15bitboard_crypto6wallet21deserialize_changeset
FNDA:0,_RNCNCNvNtCs1c8bENWoAUm_15bitboard_crypto6wallet20get_transaction_list00B7_
FNDA:0,_RNCNvNtCs1c8bENWoAUm_15bitboard_crypto6wallet11load_wallet0B5_
FNDA:0,_RNCNvNtCs1c8bENWoAUm_15bitboard_crypto6wallet11load_wallets_0B5_
FNDA:1,_RNCNvNtCs1c8bENWoAUm_15bitboard_crypto6wallet13create_wallet0B5_
FNDA:1,_RNCNvNtCs1c8bENWoAUm_15bitboard_crypto6wallet20get_transaction_list0B5_
FNF:13
FNH:10
DA:11,30
DA:12,30
DA:13,30
DA:14,30
DA:15,30
DA:16,30
DA:17,30
DA:18,30
DA:19,30
DA:20,30
DA:21,30
DA:22,30
DA:28,2
DA:29,2
DA:30,2
DA:31,2
DA:32,2
DA:33,2
DA:34,2
DA:35,2
DA:36,2
DA:37,2
DA:38,2
DA:39,2
DA:40,2
DA:41,2
DA:42,2
DA:43,2
DA:44,2
DA:47,15
DA:48,15
DA:49,15
DA:50,15
DA:51,15
DA:52,15
DA:56,2
DA:57,2
DA:58,2
DA:59,2
DA:60,2
DA:61,2
DA:62,2
DA:65,1
DA:66,1
DA:67,1
DA:68,1
DA:69,1
DA:70,1
DA:71,1
DA:72,1
DA:73,1
DA:74,1
DA:77,3
DA:78,3
DA:79,3
DA:82,3
DA:83,3
DA:84,3
DA:87,2
DA:88,2
DA:89,2
DA:90,2
DA:91,1
DA:92,1
DA:93,1
DA:94,1
DA:96,1
DA:97,1
DA:98,1
DA:99,1
DA:100,1
DA:101,1
DA:102,1
DA:103,0
DA:107,1
DA:108,1
DA:109,1
DA:110,1
DA:111,1
DA:112,1
DA:113,1
DA:115,1
DA:116,2
DA:117,2
BRF:0
BRH:0
LF:89
LH:85
end_of_record
SF:/home/radivis/projects/bitboard-pwa-wallet/crypto/src/wasm_sleep.rs
FN:47,_RNCNvXs0_NtCsdHuZvB8FrmQ_15bitboard_crypto10wasm_sleepNtB7_11WasmSleeperNtNtCscPEtTg6FNSW_14esplora_client5async7Sleeper5sleep0B9_
FN:45,_RNvXs0_NtCsdHuZvB8FrmQ_15bitboard_crypto10wasm_sleepNtB5_11WasmSleeperNtNtCscPEtTg6FNSW_14esplora_client5async7Sleeper5sleep
FN:30,_RNvXs_NtCsdHuZvB8FrmQ_15bitboard_crypto10wasm_sleepNtB4_9WasmSleepNtNtNtCs4Vq2ZLagKfv_4core6future6future6Future4poll
FN:47,_RNCNvXs0_NtCs1c8bENWoAUm_15bitboard_crypto10wasm_sleepNtB7_11WasmSleeperNtNtCscPEtTg6FNSW_14esplora_client5async7Sleeper5sleep0B9_
FN:45,_RNvXs0_NtCs1c8bENWoAUm_15bitboard_crypto10wasm_sleepNtB5_11WasmSleeperNtNtCscPEtTg6FNSW_14esplora_client5async7Sleeper5sleep
FN:30,_RNvXs_NtCs1c8bENWoAUm_15bitboard_crypto10wasm_sleepNtB4_9WasmSleepNtNtNtCs4Vq2ZLagKfv_4core6future6future6Future4poll
FNDA:0,_RNCNvXs0_NtCsdHuZvB8FrmQ_15bitboard_crypto10wasm_sleepNtB7_11WasmSleeperNtNtCscPEtTg6FNSW_14esplora_client5async7Sleeper5sleep0B9_
FNDA:0,_RNvXs0_NtCsdHuZvB8FrmQ_15bitboard_crypto10wasm_sleepNtB5_11WasmSleeperNtNtCscPEtTg6FNSW_14esplora_client5async7Sleeper5sleep
FNDA:0,_RNvXs_NtCsdHuZvB8FrmQ_15bitboard_crypto10wasm_sleepNtB4_9WasmSleepNtNtNtCs4Vq2ZLagKfv_4core6future6future6Future4poll
FNDA:0,_RNCNvXs0_NtCs1c8bENWoAUm_15bitboard_crypto10wasm_sleepNtB7_11WasmSleeperNtNtCscPEtTg6FNSW_14esplora_client5async7Sleeper5sleep0B9_
FNDA:0,_RNvXs0_NtCs1c8bENWoAUm_15bitboard_crypto10wasm_sleepNtB5_11WasmSleeperNtNtCscPEtTg6FNSW_14esplora_client5async7Sleeper5sleep
FNDA:0,_RNvXs_NtCs1c8bENWoAUm_15bitboard_crypto10wasm_sleepNtB4_9WasmSleepNtNtNtCs4Vq2ZLagKfv_4core6future6future6Future4poll
FNF:3
FNH:0
DA:30,0
DA:31,0
DA:32,0
DA:33,0
DA:35,0
DA:45,0
DA:46,0
DA:47,0
DA:48,0
DA:49,0
DA:50,0
DA:51,0
DA:52,0
DA:53,0
BRF:0
BRH:0
LF:15
LH:0
end_of_record